Microchip MPLAB XC8 Compiler V2.05 ()

Linker command line:

-W-3 --edf=C:\Program Files (x86)\Microchip\xc8\v2.05\pic\dat\en_msgs.txt \
  -cs -h+dist/default/production\QI_Monitor.X.production.sym \
  --cmf=dist/default/production\QI_Monitor.X.production.cmf -z -Q18F27K40 \
  -oC:\Users\DREWMA~1\AppData\Local\Temp\sfk4.2 --defsym=__MPLAB_BUILD=1 \
  -Mdist/default/production/QI_Monitor.X.production.map -E1 -ver=XC8 \
  --acfsm=1493 -ASTACK=04DAh-0E87h -pstack=STACK -ACODE=00h-01FFFFh \
  -ACONST=00h-01FFFFh -ASMALLCONST=0F00h-0FFFhx497 \
  -AMEDIUMCONST=0F00h-0FFFFh,010F00h-01FFFFh -ACOMRAM=01h-05Fh \
  -AABS1=00h-0E87h -ABIGRAM=01h-0E87h \
  -ARAM=060h-0FFh,0100h-01FFhx13,0E00h-0E87h -ABANK0=060h-0FFh \
  -ABANK1=0100h-01FFh -ABANK2=0200h-02FFh -ABANK3=0300h-03FFh \
  -ABANK4=0400h-04FFh -ABANK5=0500h-05FFh -ABANK6=0600h-06FFh \
  -ABANK7=0700h-07FFh -ABANK8=0800h-08FFh -ABANK9=0900h-09FFh \
  -ABANK10=0A00h-0AFFh -ABANK11=0B00h-0BFFh -ABANK12=0C00h-0CFFh \
  -ABANK13=0D00h-0DFFh -ABANK14=0E00h-0E87h \
  -ASFR=0E8Dh-0EFFh,0F00h-0F5Fh,0F60h-0FFFh \
  -preset_vec=00h,intcode=08h,intcodelo=018h,powerup,init -pramtop=0F00h \
  -psmallconst=SMALLCONST -pmediumconst=MEDIUMCONST -pconst=CONST \
  -AFARRAM=00h-00h -ACONFIG=0300000h-030000Bh -pconfig=CONFIG \
  -AIDLOC=0200000h-020000Fh -pidloc=IDLOC -AEEDATA=0310000h-03103FFh \
  -peeprom_data=EEDATA \
  -prdata=COMRAM,nvrram=COMRAM,nvbit=COMRAM,rbss=COMRAM,rbit=COMRAM \
  -pfarbss=FARRAM,fardata=FARRAM,nvFARRAM=FARRAM \
  -pintsave_regs=BIGRAM,bigbss=BIGRAM,bigdata=BIGRAM -pbss=RAM \
  -pidata=CODE,irdata=CODE,ibigdata=CODE,ifardata=CODE -prparam=COMRAM \
  C:\Users\DREWMA~1\AppData\Local\Temp\sfk4.o \
  dist/default/production\QI_Monitor.X.production.o 

Object code version is 3.11

Machine type is 18F27K40

Call graph: (short form)




                Name                               Link     Load   Length Selector   Space Scale
C:\Users\DREWMA~1\AppData\Local\Temp\sfk4.o
                init                                 C2       C2        4        C       0
                reset_vec                             0        0        4        0       0
                idloc                            200000   200000       10   200000       0
                config                           300000   300000        C   300000       0
dist/default/production\QI_Monitor.X.production.o
                intcodelo                            18       18       AA        C       0
                intcode                               8        8        6        4       0
                temp                                 5E       5E        1        1       1
                mediumconst                        E03E     E03E     1FC2     701F       0
                text210                           1C1C4    1C1C4       14     8000       0
                text209                           1C3B0    1C3B0        4     8000       0
                text208                           1C1B0    1C1B0       14     8000       0
                text207                           1C32A    1C32A        C     8000       0
                text206                           1C3AC    1C3AC        4     8000       0
                text205                           1C3A8    1C3A8        4     8000       0
                text204                           1C382    1C382        6     8000       0
                text203                           1BCA2    1BCA2       2E     8000       0
                text202                           1BA0A    1BA0A       3C     8000       0
                text201                           18594    18594      288     8000       0
                text200                           19FC6    19FC6       D0     8000       0
                text199                           16BF8    16BF8      352     8000       0
                text198                           17566    17566      30E     8000       0
                text197                           1B576    1B576       48     8000       0
                text196                           196C6    196C6      140     8000       0
                text195                           14C64    14C64      974     8000       0
                text194                           1C3C4    1C3C4        2     8000       0
                text193                           1BDEE    1BDEE       28     8000       0
                text192                           1AA72    1AA72       8A     8000       0
                text191                           1A3AC    1A3AC       BA     8000       0
                text190                           1AC8A    1AC8A       82     8000       0
                text189                           1AF88    1AF88       66     8000       0
                text188                           1BE3C    1BE3C       26     8000       0
                text187                           19D10    19D10       F4     8000       0
                text186                           19A28    19A28       FE     8000       0
                text185                           1B2BC    1B2BC       52     8000       0
                text184                           1B7DE    1B7DE       42     8000       0
                text183                           17B36    17B36      2AE     8000       0
                text182                           1BFF2    1BFF2       1E     8000       0
                text181                           1B79C    1B79C       42     8000       0
                text180                           1C35E    1C35E        A     8000       0
                text179                           1AC06    1AC06       84     8000       0
                text178                           1AD7E    1AD7E       70     8000       0
                text177                           15A0C    15A0C      418     8000       0
                text176                           11724    11724     1718     8000       0
                text175                           1B9CE    1B9CE       3C     8000       0
                text174                           1A514    1A514       A4     8000       0
                text173                           1C15E    1C15E       16     8000       0
                text172                           1C3C2    1C3C2        2     8000       0
                text171                           1BEAA    1BEAA       24     8000       0
                text170                           1C354    1C354        A     8000       0
                text169                           1C148    1C148       16     8000       0
                text168                           1C3C0    1C3C0        2     8000       0
                text167                           1BE86    1BE86       24     8000       0
                text166                           1C34A    1C34A        A     8000       0
                text165                           1C3A4    1C3A4        4     8000       0
                text164                           1C3A0    1C3A0        4     8000       0
                text163                           1C080    1C080       1C     8000       0
                text162                           1C2F8    1C2F8        E     8000       0
                text161                           1C19C    1C19C       14     8000       0
                text160                           1C3BE    1C3BE        2     8000       0
                text159                           1BD24    1BD24       2A     8000       0
                text158                           1C064    1C064       1C     8000       0
                text157                           1C2EA    1C2EA        E     8000       0
                text156                           1C048    1C048       1C     8000       0
                text155                           1C3BC    1C3BC        2     8000       0
                text154                           1BCFA    1BCFA       2A     8000       0
                text153                           1C188    1C188       14     8000       0
                text152                           1A6FA    1A6FA       9E     8000       0
                text151                           1C3BA    1C3BA        2     8000       0
                text150                           1BDC6    1BDC6       28     8000       0
                text149                           1C39C    1C39C        4     8000       0
                text148                           1C3B8    1C3B8        2     8000       0
                text147                           1C132    1C132       16     8000       0
                text146                           1BB1C    1BB1C       34     8000       0
                intcode_body                      1A096    1A096       CC     8000       0
                text144                           17258    17258      30E     8000       0
                text143                           1830A    1830A      28A     8000       0
                text142                           168A4    168A4      354     8000       0
                text141                           19582    19582      144     8000       0
                text140                           1A162    1A162       CA     8000       0
                text139                           1B820    1B820       40     8000       0
                text138                           1C0EA    1C0EA       1A     8000       0
                text137                           1BB82    1BB82       32     8000       0
                text136                           1C31E    1C31E        C     8000       0
                text135                           1C0D0    1C0D0       1A     8000       0
                text134                           1B716    1B716       44     8000       0
                text133                           18A9A    18A9A      276     8000       0
                text132                           1C37C    1C37C        6     8000       0
                text131                           1C368    1C368        8     8000       0
                text130                           1C2DC    1C2DC        E     8000       0
                text129                           1C398    1C398        4     8000       0
                text128                           1C376    1C376        6     8000       0
                text127                           1C3B6    1C3B6        2     8000       0
                text126                           1C0B6    1C0B6       1A     8000       0
                text125                           1BD9E    1BD9E       28     8000       0
                text124                           1BFD2    1BFD2       20     8000       0
                text123                           1C2CE    1C2CE        E     8000       0
                text122                           1C394    1C394        4     8000       0
                text121                           1C3B4    1C3B4        2     8000       0
                text120                           1BFB2    1BFB2       20     8000       0
                text119                           1BAE8    1BAE8       34     8000       0
                text117                           1B26A    1B26A       52     8000       0
                text116                           1C340    1C340        A     8000       0
                text115                           1A5B8    1A5B8       A2     8000       0
                text114                           1B44E    1B44E       50     8000       0
                text113                           1B604    1B604       46     8000       0
                text112                           1B3FE    1B3FE       50     8000       0
                text111                           16550    16550      354     8000       0
                text110                           1943E    1943E      144     8000       0
                text109                           17DE4    17DE4      29C     8000       0
                text108                           18F48    18F48      22C     8000       0
                text107                           18D10    18D10      238     8000       0
                text106                           1A466    1A466       AE     8000       0
                text105                           1A22C    1A22C       C4     8000       0
                text104                           1B8DC    1B8DC       3E     8000       0
                text103                           1AF22    1AF22       66     8000       0
                text102                           1A830    1A830       98     8000       0
                text101                           1B1BE    1B1BE       58     8000       0
                text100                           1B6D2    1B6D2       44     8000       0
                text99                            1BC74    1BC74       2E     8000       0
                text98                            19806    19806      122     8000       0
                text97                            18080    18080      28A     8000       0
                text96                            1BC44    1BC44       30     8000       0
                text95                            1AB82    1AB82       84     8000       0
                text94                            1BD76    1BD76       28     8000       0
                text93                            1A8C8    1A8C8       90     8000       0
                text92                            1C09C    1C09C       1A     8000       0
                text91                            1B75A    1B75A       42     8000       0
                text90                            1BF92    1BF92       20     8000       0
                text89                            19E04    19E04       F0     8000       0
                text88                            1B992    1B992       3C     8000       0
                text87                            1BE16    1BE16       26     8000       0
                text86                            192EE    192EE      150     8000       0
                text85                            1B108    1B108       5C     8000       0
                text84                            19174    19174      17A     8000       0
                text83                            1BC14    1BC14       30     8000       0
                text82                            1A9E6    1A9E6       8C     8000       0
                text81                            19EF4    19EF4       D2     8000       0
                text80                            1BBE4    1BBE4       30     8000       0
                text79                            16F4A    16F4A      30E     8000       0
                text78                            1B52E    1B52E       48     8000       0
                text77                            1A2F0    1A2F0       BC     8000       0
                text76                            1ADEE    1ADEE       68     8000       0
                text75                            19B26    19B26       F6     8000       0
                text74                            19928    19928      100     8000       0
                text73                            1B216    1B216       54     8000       0
                text72                            1B68E    1B68E       44     8000       0
                text71                            17874    17874      2C2     8000       0
                text70                            1BEF0    1BEF0       22     8000       0
                text69                            1B64A    1B64A       44     8000       0
                text68                            1C174    1C174       14     8000       0
                text67                            1AAFC    1AAFC       86     8000       0
                text66                            1AD0C    1AD0C       72     8000       0
                text65                            155D8    155D8      434     8000       0
                text64                            10000    10000     1724     8000       0
                text63                            1B4E6    1B4E6       48     8000       0
                text62                            1B49E    1B49E       48     8000       0
                text61                            12E3C    12E3C     107A     8000       0
                text60                            1C2C0    1C2C0        E     8000       0
                text59                            1AFEE    1AFEE       60     8000       0
                text58                            1BECE    1BECE       22     8000       0
                text57                            1C2B2    1C2B2        E     8000       0
                text56                            1C2A4    1C2A4        E     8000       0
                text55                            1AEBC    1AEBC       66     8000       0
                text54                            1C296    1C296        E     8000       0
                text53                            1C288    1C288        E     8000       0
                text52                            1BA46    1BA46       38     8000       0
                text51                            1C312    1C312        C     8000       0
                text50                            1BA7E    1BA7E       36     8000       0
                text49                            1BF72    1BF72       20     8000       0
                text48                            1C104    1C104       18     8000       0
                text47                            1C27A    1C27A        E     8000       0
                text46                            1C26C    1C26C        E     8000       0
                text45                            1A65A    1A65A       A0     8000       0
                text44                            1C02C    1C02C       1C     8000       0
                text43                            1C25E    1C25E        E     8000       0
                text42                            1BCD0    1BCD0       2A     8000       0
                text41                            1C250    1C250        E     8000       0
                text40                            1B3AE    1B3AE       50     8000       0
                text39                            1C242    1C242        E     8000       0
                text38                            1BB50    1BB50       32     8000       0
                text37                            1C234    1C234        E     8000       0
                text36                            1B35E    1B35E       50     8000       0
                text35                            1B956    1B956       3C     8000       0
                text34                            1B89E    1B89E       3E     8000       0
                text33                            1BF52    1BF52       20     8000       0
                text32                            1C226    1C226        E     8000       0
                text31                            1C390    1C390        4     8000       0
                text30                            1BF32    1BF32       20     8000       0
                text29                            1C218    1C218        E     8000       0
                text28                            1C38C    1C38C        4     8000       0
                text27                            1C388    1C388        4     8000       0
                text26                            1BF12    1BF12       20     8000       0
                text25                            1C336    1C336        A     8000       0
                text24                            1B164    1B164       5A     8000       0
                text23                            1B91A    1B91A       3C     8000       0
                text22                            1C208    1C208       10     8000       0
                text21                            1C1F8    1C1F8       10     8000       0
                text20                            1B860    1B860       3E     8000       0
                text19                            1C11C    1C11C       16     8000       0
                text18                            1BD4E    1BD4E       28     8000       0
                text17                            1C370    1C370        6     8000       0
                text16                            1B5BE    1B5BE       46     8000       0
                text15                            1C1E8    1C1E8       10     8000       0
                text14                            1C010    1C010       1C     8000       0
                text13                            1C306    1C306        C     8000       0
                text12                            1BBB4    1BBB4       30     8000       0
                text11                            1A798    1A798       98     8000       0
                text10                            1B0AC    1B0AC       5C     8000       0
                text9                             1B04E    1B04E       5E     8000       0
                text8                             15E24    15E24      3A6     8000       0
                text7                             1BAB4    1BAB4       34     8000       0
                text6                             1B30E    1B30E       50     8000       0
                text5                             1AE56    1AE56       66     8000       0
                text4                             161CA    161CA      386     8000       0
                text3                             1C1D8    1C1D8       10     8000       0
                text2                             13EB6    13EB6      DAE     8000       0
                text1                             19C1C    19C1C       F4     8000       0
                text0                             1881C    1881C      27E     8000       0
                cstackCOMRAM                          1        1       5D        1       1
                cstackBANK0                          60       60       59       60       1
                cstackBANK1                         100      100       61      100       1
                cstackBANK2                         200      200       AE      200       1
                cstackBANK3                         3DD      3DD       23      300       1
                cstackBANK4                         4C0      4C0       1A      400       1
                bssBANK4                            400      400       C0      400       1
                dataBANK3                           3B9      3B9       24      300       1
                bssBANK3                            300      300       B9      300       1
                dataBANK2                           2FF      2FF        1      200       1
                bssBANK2                            2AE      2AE       50      200       1
                bssBANK1                            161      161       5D      100       1
                dataBANK0                            FD       FD        1       60       1
                bssBANK0                             B9       B9       43       60       1
                bitbssBANK0                         7E0       FC        1       60       1     8
                cinit                             1A958    1A958       8E     8000       0
                nvBANK2                             2FE      2FE        1      200       1
                idataBANK3                        1BE62    1BE62       24     8000       0
                idataBANK2                        1C3C7    1C3C7        1     8000       0
                idataBANK0                        1C3C6    1C3C6        1     8000       0

TOTAL           Name                               Link     Load   Length     Space
        CLASS   STACK          

        CLASS   CODE           
                intcodelo                            18       18       AA         0
                intcode                               8        8        6         0
                init                                 C2       C2        4         0
                reset_vec                             0        0        4         0
                text210                           1C1C4    1C1C4       14         0
                text209                           1C3B0    1C3B0        4         0
                text208                           1C1B0    1C1B0       14         0
                text207                           1C32A    1C32A        C         0
                text206                           1C3AC    1C3AC        4         0
                text205                           1C3A8    1C3A8        4         0
                text204                           1C382    1C382        6         0
                text203                           1BCA2    1BCA2       2E         0
                text202                           1BA0A    1BA0A       3C         0
                text201                           18594    18594      288         0
                text200                           19FC6    19FC6       D0         0
                text199                           16BF8    16BF8      352         0
                text198                           17566    17566      30E         0
                text197                           1B576    1B576       48         0
                text196                           196C6    196C6      140         0
                text195                           14C64    14C64      974         0
                text194                           1C3C4    1C3C4        2         0
                text193                           1BDEE    1BDEE       28         0
                text192                           1AA72    1AA72       8A         0
                text191                           1A3AC    1A3AC       BA         0
                text190                           1AC8A    1AC8A       82         0
                text189                           1AF88    1AF88       66         0
                text188                           1BE3C    1BE3C       26         0
                text187                           19D10    19D10       F4         0
                text186                           19A28    19A28       FE         0
                text185                           1B2BC    1B2BC       52         0
                text184                           1B7DE    1B7DE       42         0
                text183                           17B36    17B36      2AE         0
                text182                           1BFF2    1BFF2       1E         0
                text181                           1B79C    1B79C       42         0
                text180                           1C35E    1C35E        A         0
                text179                           1AC06    1AC06       84         0
                text178                           1AD7E    1AD7E       70         0
                text177                           15A0C    15A0C      418         0
                text176                           11724    11724     1718         0
                text175                           1B9CE    1B9CE       3C         0
                text174                           1A514    1A514       A4         0
                text173                           1C15E    1C15E       16         0
                text172                           1C3C2    1C3C2        2         0
                text171                           1BEAA    1BEAA       24         0
                text170                           1C354    1C354        A         0
                text169                           1C148    1C148       16         0
                text168                           1C3C0    1C3C0        2         0
                text167                           1BE86    1BE86       24         0
                text166                           1C34A    1C34A        A         0
                text165                           1C3A4    1C3A4        4         0
                text164                           1C3A0    1C3A0        4         0
                text163                           1C080    1C080       1C         0
                text162                           1C2F8    1C2F8        E         0
                text161                           1C19C    1C19C       14         0
                text160                           1C3BE    1C3BE        2         0
                text159                           1BD24    1BD24       2A         0
                text158                           1C064    1C064       1C         0
                text157                           1C2EA    1C2EA        E         0
                text156                           1C048    1C048       1C         0
                text155                           1C3BC    1C3BC        2         0
                text154                           1BCFA    1BCFA       2A         0
                text153                           1C188    1C188       14         0
                text152                           1A6FA    1A6FA       9E         0
                text151                           1C3BA    1C3BA        2         0
                text150                           1BDC6    1BDC6       28         0
                text149                           1C39C    1C39C        4         0
                text148                           1C3B8    1C3B8        2         0
                text147                           1C132    1C132       16         0
                text146                           1BB1C    1BB1C       34         0
                intcode_body                      1A096    1A096       CC         0
                text144                           17258    17258      30E         0
                text143                           1830A    1830A      28A         0
                text142                           168A4    168A4      354         0
                text141                           19582    19582      144         0
                text140                           1A162    1A162       CA         0
                text139                           1B820    1B820       40         0
                text138                           1C0EA    1C0EA       1A         0
                text137                           1BB82    1BB82       32         0
                text136                           1C31E    1C31E        C         0
                text135                           1C0D0    1C0D0       1A         0
                text134                           1B716    1B716       44         0
                text133                           18A9A    18A9A      276         0
                text132                           1C37C    1C37C        6         0
                text131                           1C368    1C368        8         0
                text130                           1C2DC    1C2DC        E         0
                text129                           1C398    1C398        4         0
                text128                           1C376    1C376        6         0
                text127                           1C3B6    1C3B6        2         0
                text126                           1C0B6    1C0B6       1A         0
                text125                           1BD9E    1BD9E       28         0
                text124                           1BFD2    1BFD2       20         0
                text123                           1C2CE    1C2CE        E         0
                text122                           1C394    1C394        4         0
                text121                           1C3B4    1C3B4        2         0
                text120                           1BFB2    1BFB2       20         0
                text119                           1BAE8    1BAE8       34         0
                text117                           1B26A    1B26A       52         0
                text116                           1C340    1C340        A         0
                text115                           1A5B8    1A5B8       A2         0
                text114                           1B44E    1B44E       50         0
                text113                           1B604    1B604       46         0
                text112                           1B3FE    1B3FE       50         0
                text111                           16550    16550      354         0
                text110                           1943E    1943E      144         0
                text109                           17DE4    17DE4      29C         0
                text108                           18F48    18F48      22C         0
                text107                           18D10    18D10      238         0
                text106                           1A466    1A466       AE         0
                text105                           1A22C    1A22C       C4         0
                text104                           1B8DC    1B8DC       3E         0
                text103                           1AF22    1AF22       66         0
                text102                           1A830    1A830       98         0
                text101                           1B1BE    1B1BE       58         0
                text100                           1B6D2    1B6D2       44         0
                text99                            1BC74    1BC74       2E         0
                text98                            19806    19806      122         0
                text97                            18080    18080      28A         0
                text96                            1BC44    1BC44       30         0
                text95                            1AB82    1AB82       84         0
                text94                            1BD76    1BD76       28         0
                text93                            1A8C8    1A8C8       90         0
                text92                            1C09C    1C09C       1A         0
                text91                            1B75A    1B75A       42         0
                text90                            1BF92    1BF92       20         0
                text89                            19E04    19E04       F0         0
                text88                            1B992    1B992       3C         0
                text87                            1BE16    1BE16       26         0
                text86                            192EE    192EE      150         0
                text85                            1B108    1B108       5C         0
                text84                            19174    19174      17A         0
                text83                            1BC14    1BC14       30         0
                text82                            1A9E6    1A9E6       8C         0
                text81                            19EF4    19EF4       D2         0
                text80                            1BBE4    1BBE4       30         0
                text79                            16F4A    16F4A      30E         0
                text78                            1B52E    1B52E       48         0
                text77                            1A2F0    1A2F0       BC         0
                text76                            1ADEE    1ADEE       68         0
                text75                            19B26    19B26       F6         0
                text74                            19928    19928      100         0
                text73                            1B216    1B216       54         0
                text72                            1B68E    1B68E       44         0
                text71                            17874    17874      2C2         0
                text70                            1BEF0    1BEF0       22         0
                text69                            1B64A    1B64A       44         0
                text68                            1C174    1C174       14         0
                text67                            1AAFC    1AAFC       86         0
                text66                            1AD0C    1AD0C       72         0
                text65                            155D8    155D8      434         0
                text64                            10000    10000     1724         0
                text63                            1B4E6    1B4E6       48         0
                text62                            1B49E    1B49E       48         0
                text61                            12E3C    12E3C     107A         0
                text60                            1C2C0    1C2C0        E         0
                text59                            1AFEE    1AFEE       60         0
                text58                            1BECE    1BECE       22         0
                text57                            1C2B2    1C2B2        E         0
                text56                            1C2A4    1C2A4        E         0
                text55                            1AEBC    1AEBC       66         0
                text54                            1C296    1C296        E         0
                text53                            1C288    1C288        E         0
                text52                            1BA46    1BA46       38         0
                text51                            1C312    1C312        C         0
                text50                            1BA7E    1BA7E       36         0
                text49                            1BF72    1BF72       20         0
                text48                            1C104    1C104       18         0
                text47                            1C27A    1C27A        E         0
                text46                            1C26C    1C26C        E         0
                text45                            1A65A    1A65A       A0         0
                text44                            1C02C    1C02C       1C         0
                text43                            1C25E    1C25E        E         0
                text42                            1BCD0    1BCD0       2A         0
                text41                            1C250    1C250        E         0
                text40                            1B3AE    1B3AE       50         0
                text39                            1C242    1C242        E         0
                text38                            1BB50    1BB50       32         0
                text37                            1C234    1C234        E         0
                text36                            1B35E    1B35E       50         0
                text35                            1B956    1B956       3C         0
                text34                            1B89E    1B89E       3E         0
                text33                            1BF52    1BF52       20         0
                text32                            1C226    1C226        E         0
                text31                            1C390    1C390        4         0
                text30                            1BF32    1BF32       20         0
                text29                            1C218    1C218        E         0
                text28                            1C38C    1C38C        4         0
                text27                            1C388    1C388        4         0
                text26                            1BF12    1BF12       20         0
                text25                            1C336    1C336        A         0
                text24                            1B164    1B164       5A         0
                text23                            1B91A    1B91A       3C         0
                text22                            1C208    1C208       10         0
                text21                            1C1F8    1C1F8       10         0
                text20                            1B860    1B860       3E         0
                text19                            1C11C    1C11C       16         0
                text18                            1BD4E    1BD4E       28         0
                text17                            1C370    1C370        6         0
                text16                            1B5BE    1B5BE       46         0
                text15                            1C1E8    1C1E8       10         0
                text14                            1C010    1C010       1C         0
                text13                            1C306    1C306        C         0
                text12                            1BBB4    1BBB4       30         0
                text11                            1A798    1A798       98         0
                text10                            1B0AC    1B0AC       5C         0
                text9                             1B04E    1B04E       5E         0
                text8                             15E24    15E24      3A6         0
                text7                             1BAB4    1BAB4       34         0
                text6                             1B30E    1B30E       50         0
                text5                             1AE56    1AE56       66         0
                text4                             161CA    161CA      386         0
                text3                             1C1D8    1C1D8       10         0
                text2                             13EB6    13EB6      DAE         0
                text1                             19C1C    19C1C       F4         0
                text0                             1881C    1881C      27E         0
                cinit                             1A958    1A958       8E         0
                idataBANK3                        1BE62    1BE62       24         0
                idataBANK2                        1C3C7    1C3C7        1         0
                idataBANK0                        1C3C6    1C3C6        1         0

        CLASS   CONST          

        CLASS   SMALLCONST     

        CLASS   MEDIUMCONST    
                mediumconst                        E03E     E03E     1FC2         0

        CLASS   COMRAM         
                temp                                 5E       5E        1         1
                cstackCOMRAM                          1        1       5D         1

        CLASS   ABS1           

        CLASS   BIGRAM         

        CLASS   RAM            

        CLASS   BANK0          
                cstackBANK0                          60       60       59         1
                dataBANK0                            FD       FD        1         1
                bssBANK0                             B9       B9       43         1
                bitbssBANK0                         7E0       FC        1         1

        CLASS   BANK1          
                cstackBANK1                         100      100       61         1
                bssBANK1                            161      161       5D         1

        CLASS   BANK2          
                cstackBANK2                         200      200       AE         1
                dataBANK2                           2FF      2FF        1         1
                bssBANK2                            2AE      2AE       50         1
                nvBANK2                             2FE      2FE        1         1

        CLASS   BANK3          
                cstackBANK3                         3DD      3DD       23         1
                dataBANK3                           3B9      3B9       24         1
                bssBANK3                            300      300       B9         1

        CLASS   BANK4          
                cstackBANK4                         4C0      4C0       1A         1
                bssBANK4                            400      400       C0         1

        CLASS   BANK5          

        CLASS   BANK6          

        CLASS   BANK7          

        CLASS   BANK8          

        CLASS   BANK9          

        CLASS   BANK10         

        CLASS   BANK11         

        CLASS   BANK12         

        CLASS   BANK13         

        CLASS   BANK14         

        CLASS   SFR            

        CLASS   FARRAM         

        CLASS   CONFIG         
                config                           300000   300000        C         0

        CLASS   IDLOC          
                idloc                            200000   200000       10         0

        CLASS   EEDATA         



SEGMENTS        Name                           Load    Length   Top    Selector   Space  Class

                reset_vec                      000000  000004  000004         0       0  CODE    
                cstackCOMRAM                   000001  00005E  00005F         1       1  COMRAM  
                intcode                        000008  000006  00000E         4       0  CODE    
                intcodelo                      000018  0000AE  0000C6         C       0  CODE    
                cstackBANK0                    000060  00009E  0000FE        60       1  BANK0   
                cstackBANK1                    000100  0000BE  0001BE       100       1  BANK1   
                cstackBANK2                    000200  000100  000300       200       1  BANK2   
                bssBANK3                       000300  000100  000400       300       1  BANK3   
                bssBANK4                       000400  0000DA  0004DA       400       1  BANK4   
                mediumconst                    00E03E  001FC2  010000      701F       0  MEDIUMCO
                text64                         010000  00C3C8  01C3C8      8000       0  CODE    
                idloc                          200000  000010  200010    200000       0  IDLOC   
                config                         300000  00000C  30000C    300000       0  CONFIG  


UNUSED ADDRESS RANGES

        Name                Unused          Largest block    Delta
        BANK0            0000FE-0000FF                2
        BANK1            0001BE-0001FF               42
        BANK10           000A00-000AFF              100
        BANK11           000B00-000BFF              100
        BANK12           000C00-000CFF              100
        BANK13           000D00-000DFF              100
        BANK14           000E00-000E87               88
        BANK4            0004DA-0004FF               26
        BANK5            000500-0005FF              100
        BANK6            000600-0006FF              100
        BANK7            000700-0007FF              100
        BANK8            000800-0008FF              100
        BANK9            000900-0009FF              100
        BIGRAM           00005F-00005F                1
                         0000FE-0000FF                2
                         0001BE-0001FF               42
                         0004DA-000E87              9AE
        CODE             000004-000007                4
                         00000E-000017                A
                         0000C6-00E03D             DF78
                         01C3C8-01FFFF             3C38
        COMRAM           00005F-00005F                1
        CONST            000004-000007                4
                         00000E-000017                A
                         0000C6-00E03D             DF78
                         01C3C8-01FFFF             3C38
        EEDATA           310000-3103FF              400
        MEDIUMCONST      000F00-00E03D             D13E
                         01C3C8-01FFFF             3C38
        RAM              0000FE-0000FF                2
                         0001BE-0001FF               42
                         0004DA-000E87              100
        SFR              000E8D-000FFF               73
        SMALLCONST       000F00-00E03D              100
                         01C3C8-01FFFF              100
        STACK            0004DA-000E87              9AE

                                  Symbol Table

?_ADCC_GetConversionResult                     cstackCOMRAM 000001
?_ADCC_GetFilterValue                          cstackCOMRAM 000001
?_FLASH_ReadWord                               cstackBANK2  000204
?___awdiv                                      cstackBANK2  000206
?___awmod                                      cstackBANK2  000200
?___fladd                                      cstackBANK2  000234
?___fldiv                                      cstackBANK2  000200
?___flmul                                      cstackBANK2  00020E
?___flneg                                      cstackBANK2  000200
?___flsub                                      cstackBANK2  000244
?___fltol                                      cstackBANK2  000230
?___lldiv                                      cstackBANK2  000200
?___llmod                                      cstackBANK2  00020D
?___lwdiv                                      cstackBANK2  000205
?___lwmod                                      cstackBANK2  000200
?___wmul                                       cstackBANK2  000200
?___xxtofl                                     cstackBANK2  000200
?__div_to_l_                                   cstackBANK2  000200
?__doprnt                                      cstackBANK2  00024C
?__tdiv_to_l_                                  cstackBANK2  000200
?_fabs                                         cstackCOMRAM 000005
?_fround                                       cstackBANK2  000227
?_getCauseOfResetString                        cstackBANK2  000200
?_getCauseOfResetStringSmall                   cstackBANK2  000200
?_getDeviceID                                  cstackBANK2  00020B
?_getDeviceIDString                            cstackBANK2  00020D
?_getNXQChargeStateString                      cstackBANK2  000200
?_getNXQChargeStateStringCaps                  cstackBANK2  000200
?_getStringSecondsAsTime                       cstackBANK2  000297
?_getUserID                                    cstackBANK2  00020B
?_printf                                       cstackBANK2  00029F
?_scale                                        cstackBANK2  000227
?_sprintf                                      cstackBANK2  000284
?_strcmp                                       cstackBANK2  000200
?_strlen                                       cstackBANK2  000200
?i1___fladd                                    cstackBANK1  00010E
?i1___fldiv                                    cstackBANK1  00011E
?i1___flmul                                    cstackBANK1  000137
?i1___xxtofl                                   cstackBANK1  000100
?i2___awdiv                                    cstackCOMRAM 000007
?i2___awmod                                    cstackCOMRAM 000001
?i2___fladd                                    cstackCOMRAM 000052
?i2___fldiv                                    cstackCOMRAM 000013
?i2___flmul                                    cstackCOMRAM 00002C
?i2___flneg                                    cstackCOMRAM 000001
?i2___flsub                                    cstackBANK0  000064
?i2___fltol                                    cstackCOMRAM 00004E
?i2___lldiv                                    cstackCOMRAM 000001
?i2___llmod                                    cstackCOMRAM 00000E
?i2___lwdiv                                    cstackCOMRAM 000006
?i2___lwmod                                    cstackCOMRAM 000001
?i2___wmul                                     cstackCOMRAM 000001
?i2___xxtofl                                   cstackCOMRAM 000005
?i2__div_to_l_                                 cstackCOMRAM 000001
?i2__doprnt                                    cstackBANK0  00006C
?i2__tdiv_to_l_                                cstackCOMRAM 000001
?i2_fround                                     cstackCOMRAM 000045
?i2_printf                                     cstackBANK0  0000A4
?i2_scale                                      cstackCOMRAM 000045
ADCC_SetADTIInterruptHandler@InterruptHandler  cstackBANK2  000200
ADCC_StartConversion@channel                   cstackBANK1  000100
ADC_PostProcessingHandler@current_adc_channel  cstackBANK0  000078
ADC_PostProcessingHandler@i                    cstackBANK0  000079
ADC_PostProcessingHandler@i_3361               cstackBANK0  00007A
CCP2_CallBack@capturedValue                    cstackBANK1  000154
CCP2_CaptureISR@module                         cstackBANK1  000156
EUSART2_Read@readValue                         cstackBANK2  000200
EUSART2_SetRxInterruptHandler@interruptHandler cstackBANK2  000200
EUSART2_SetTxInterruptHandler@interruptHandler cstackBANK2  000200
EUSART2_Write@txData                           cstackBANK2  000200
FLASH_ReadByte@flashAddr                       cstackBANK2  000200
FLASH_ReadWord@flashAddr                       cstackBANK2  000204
I2C2_ISR@i2c_10bit_address_restart             bssBANK0     0000D9
I2C2_ISR@i2c_address                           bssBANK0     0000FA
I2C2_ISR@i2c_bytes_left                        bssBANK0     0000DA
I2C2_ISR@pi2c_buf_ptr                          bssBANK0     0000D1
I2C2_MasterRead@address                        cstackBANK2  00020C
I2C2_MasterRead@length                         cstackBANK2  00020B
I2C2_MasterRead@pdata                          cstackBANK2  000209
I2C2_MasterRead@pflag                          cstackBANK2  00020E
I2C2_MasterRead@trBlock                        bssBANK1     0001AE
I2C2_MasterReadTRBBuild@address                cstackBANK2  000205
I2C2_MasterReadTRBBuild@length                 cstackBANK2  000204
I2C2_MasterReadTRBBuild@pdata                  cstackBANK2  000202
I2C2_MasterReadTRBBuild@ptrb                   cstackBANK2  000200
I2C2_MasterTRBInsert@count                     cstackBANK2  000205
I2C2_MasterTRBInsert@pflag                     cstackBANK2  000202
I2C2_MasterTRBInsert@ptrb_list                 cstackBANK2  000200
I2C2_MasterWrite@address                       cstackBANK2  00020C
I2C2_MasterWrite@length                        cstackBANK2  00020B
I2C2_MasterWrite@pdata                         cstackBANK2  000209
I2C2_MasterWrite@pflag                         cstackBANK2  00020E
I2C2_MasterWrite@trBlock                       bssBANK1     0001B3
I2C2_MasterWriteTRBBuild@address               cstackBANK2  000205
I2C2_MasterWriteTRBBuild@length                cstackBANK2  000204
I2C2_MasterWriteTRBBuild@pdata                 cstackBANK2  000202
I2C2_MasterWriteTRBBuild@ptrb                  cstackBANK2  000200
I2C2_Stop@completion_code                      cstackBANK1  000102
INT1_SetInterruptHandler@InterruptHandler      cstackBANK2  000200
INT2_SetInterruptHandler@InterruptHandler      cstackBANK2  000200
IOCBF2_SetInterruptHandler@InterruptHandler    cstackBANK2  000200
IOCBF3_SetInterruptHandler@InterruptHandler    cstackBANK2  000200
LM73Convert@Ambient_Conv                       cstackBANK2  00022E
LM73Convert@POS5_Conv                          cstackBANK2  00022C
LM73Convert@QI_Conv                            cstackBANK2  00022A
LM73TempSensorInitialize@output_data_array     cstackBANK2  000210
OLED_Clear@col                                 cstackBANK2  000223
OLED_Clear@row                                 cstackBANK2  000221
OLED_Command@data_array                        cstackBANK2  000212
OLED_Command@temp                              cstackBANK2  000210
OLED_PutChar@ch                                cstackBANK2  000220
OLED_PutChar@data_array                        cstackBANK2  000214
OLED_PutChar@input_base                        cstackBANK2  00021D
OLED_UpdateFromRAMBuffer@char_index            cstackBANK2  000223
OLED_UpdateFromRAMBuffer@char_index_4057       cstackBANK2  000224
OLED_UpdateFromRAMBuffer@char_index_4058       cstackBANK2  000225
OLED_UpdateFromRAMBuffer@char_index_4059       cstackBANK2  000226
OLED_WriteString@s                             cstackBANK2  000221
OLED_YX@Column                                 cstackBANK2  000214
OLED_YX@Row                                    cstackBANK2  000218
OLED_updateHandler@dev_id_str                  cstackBANK3  0003DD
OLED_updateHandler@rev_id_str                  cstackBANK3  0003EE
TMR0_SetInterruptHandler@InterruptHandler      cstackBANK2  000200
TMR1_SetInterruptHandler@InterruptHandler      cstackBANK2  000200
TMR1_WriteTimer@timerVal                       cstackBANK2  000200
TMR2_SetInterruptHandler@InterruptHandler      cstackBANK2  000200
TMR3_SetInterruptHandler@InterruptHandler      cstackBANK2  000200
TMR3_WriteTimer@timerVal                       cstackBANK2  000200
TMR5_WriteTimer@timerVal                       cstackBANK2  000200
_ADACCH                                        (abs)        000F71
_ADACCL                                        (abs)        000F70
_ADACQ                                         (abs)        000F5C
_ADACT                                         (abs)        000F56
_ADCAP                                         (abs)        000F5D
_ADCC_ADTI_InterruptHandler                    bssBANK1     00017A
_ADCC_ClearAccumulator                         text132      01C37C
_ADCC_DefaultInterruptHandler                  text194      01C3C4
_ADCC_DischargeSampleCapacitor                 text131      01C368
_ADCC_GetConversionResult                      text210      01C1C4
_ADCC_GetCurrentCountofConversions             text209      01C3B0
_ADCC_GetFilterValue                           text208      01C1B0
_ADCC_HasAccumulatorOverflowed                 text207      01C32A
_ADCC_Initialize                               text59       01AFEE
_ADCC_SetADTIInterruptHandler                  text60       01C2C0
_ADCC_StartConversion                          text130      01C2DC
_ADCC_StopConversion                           text206      01C3AC
_ADCC_ThresholdISR                             text193      01BDEE
_ADCLK                                         (abs)        000F57
_ADCNT                                         (abs)        000F67
_ADCON0                                        (abs)        000F60
_ADCON0bits                                    (abs)        000F60
_ADCON1                                        (abs)        000F59
_ADCON1bits                                    (abs)        000F59
_ADCON2                                        (abs)        000F5A
_ADCON2bits                                    (abs)        000F5A
_ADCON3                                        (abs)        000F5B
_ADCON3bits                                    (abs)        000F5B
_ADC_PostProcessingHandler                     text195      014C64
_ADC_PostProcessingHandler$6318                cstackBANK0  00007B
_ADC_PostProcessingHandler$6319                cstackBANK0  00007F
_ADC_PostProcessingHandler$6320                cstackBANK0  00006C
_ADC_PostProcessingHandler$6321                cstackBANK0  000070
_ADC_PostProcessingHandler$6322                cstackBANK0  000074
_ADC_acquisitionTimerHandler                   text126      01C0B6
_ADERRH                                        (abs)        000F6F
_ADERRL                                        (abs)        000F6E
_ADFLTRH                                       (abs)        000F73
_ADFLTRL                                       (abs)        000F72
_ADLTHH                                        (abs)        000F6B
_ADLTHL                                        (abs)        000F6A
_ADPCH                                         (abs)        000F5F
_ADPRE                                         (abs)        000F5E
_ADPREVH                                       (abs)        000F62
_ADPREVL                                       (abs)        000F61
_ADREF                                         (abs)        000F58
_ADRESH                                        (abs)        000F64
_ADRESL                                        (abs)        000F63
_ADRPT                                         (abs)        000F66
_ADSTAT                                        (abs)        000F65
_ADSTATbits                                    (abs)        000F65
_ADSTPTH                                       (abs)        000F69
_ADSTPTL                                       (abs)        000F68
_ADUTHH                                        (abs)        000F6D
_ADUTHL                                        (abs)        000F6C
_ANSELA                                        (abs)        000F11
_ANSELB                                        (abs)        000F19
_ANSELC                                        (abs)        000F21
_BAUD2CON                                      (abs)        000E9F
_CCP2CAP                                       (abs)        000FA9
_CCP2CON                                       (abs)        000FA8
_CCP2CONbits                                   (abs)        000FA8
_CCP2PPS                                       (abs)        000EB0
_CCP2_CallBack                                 text139      01B820
_CCP2_CaptureISR                               text138      01C0EA
_CCP2_Initialize                               text58       01BECE
_CCPR2H                                        (abs)        000FA7
_CCPR2L                                        (abs)        000FA6
_CCPTMRSbits                                   (abs)        000FAE
_EUSART2_Initialize                            text55       01AEBC
_EUSART2_Read                                  text20       01B860
_EUSART2_Receive_ISR                           text174      01A514
_EUSART2_RxDefaultInterruptHandler             bssBANK1     000183
_EUSART2_SetRxInterruptHandler                 text57       01C2B2
_EUSART2_SetTxInterruptHandler                 text56       01C2A4
_EUSART2_Transmit_ISR                          text137      01BB82
_EUSART2_TxDefaultInterruptHandler             bssBANK1     000186
_EUSART2_Write                                 text69       01B64A
_EXT_INT_Initialize                            text52       01BA46
_FLASH_ReadByte                                text92       01C09C
_FLASH_ReadWord                                text91       01B75A
_FVRCON                                        (abs)        000F31
_FVRCONbits                                    (abs)        000F31
_FVR_Initialize                                text51       01C312
_I2C2_BusCollisionISR                          text136      01C31E
_I2C2_FunctionComplete                         text135      01C0D0
_I2C2_ISR                                      text133      018A9A
_I2C2_Initialize                               text50       01BA7E
_I2C2_MasterRead                               text114      01B44E
_I2C2_MasterReadTRBBuild                       text117      01B26A
_I2C2_MasterTRBInsert                          text115      01A5B8
_I2C2_MasterWrite                              text112      01B3FE
_I2C2_MasterWriteTRBBuild                      text113      01B604
_I2C2_Stop                                     text134      01B716
_I2C2_WaitForLastPacketToComplete              text116      01C340
_I2C_STATUS                                    bssBANK1     0001BD
_INT1PPS                                       (abs)        000EA2
_INT1_CallBack                                 text171      01BEAA
_INT1_DefaultInterruptHandler                  text172      01C3C2
_INT1_ISR                                      text170      01C354
_INT1_InterruptHandler                         bssBANK1     00018C
_INT1_SetInterruptHandler                      text54       01C296
_INT2PPS                                       (abs)        000EA3
_INT2_CallBack                                 text167      01BE86
_INT2_DefaultInterruptHandler                  text168      01C3C0
_INT2_ISR                                      text166      01C34A
_INT2_InterruptHandler                         bssBANK1     000189
_INT2_SetInterruptHandler                      text53       01C288
_INTCONbits                                    (abs)        000FF2
_INTERRUPT_Initialize                          text49       01BF72
_INTERRUPT_InterruptManagerHigh                intcode      000008
_INTERRUPT_InterruptManagerLow                 intcodelo    000018
_IOCBF2_DefaultInterruptHandler                text160      01C3BE
_IOCBF2_ISR                                    text159      01BD24
_IOCBF2_InterruptHandler                       bssBANK1     000180
_IOCBF2_SetInterruptHandler                    text47       01C27A
_IOCBF3_DefaultInterruptHandler                text155      01C3BC
_IOCBF3_ISR                                    text154      01BCFA
_IOCBF3_InterruptHandler                       bssBANK1     00017D
_IOCBF3_SetInterruptHandler                    text46       01C26C
_IOCBFbits                                     (abs)        000F12
_IOCBNbits                                     (abs)        000F13
_IOCBPbits                                     (abs)        000F14
_IPR0bits                                      (abs)        000EBA
_IPR1bits                                      (abs)        000EBB
_IPR3bits                                      (abs)        000EBD
_IPR4bits                                      (abs)        000EBE
_IPR6bits                                      (abs)        000EC0
_LATA                                          (abs)        000F83
_LATB                                          (abs)        000F84
_LATBbits                                      (abs)        000F84
_LATC                                          (abs)        000F85
_LATCbits                                      (abs)        000F85
_LM73AcquisitionHandler                        text108      018F48
_LM73Convert                                   text109      017DE4
_LM73TempSensorInitialize                      text107      018D10
_LM73_start_flag                               bssBANK2     0002B8
_LM73_temp_results                             bssBANK1     00019C
_NVMADRH                                       (abs)        000F7F
_NVMADRL                                       (abs)        000F7E
_NVMCON1bits                                   (abs)        000F81
_NVMCON2                                       (abs)        000F82
_NVMDAT                                        (abs)        000F80
_ODCONA                                        (abs)        000F0F
_ODCONB                                        (abs)        000F17
_ODCONC                                        (abs)        000F1F
_OLED_Clear                                    text104      01B8DC
_OLED_Command                                  text103      01AF22
_OLED_Frame                                    bssBANK2     0002B7
_OLED_Init                                     text102      01A830
_OLED_PutChar                                  text105      01A22C
_OLED_RAM_Buffer                               bssBANK2     0002BA
_OLED_UpdateFromRAMBuffer                      text98       019806
_OLED_WriteString                              text101      01B1BE
_OLED_YX                                       text100      01B6D2
_OLED_updateHandler                            text61       012E3C
_OLED_update_flag                              bssBANK2     0002B6
_OLED_update_time                              dataBANK2    0002FF
_OSCCON1                                       (abs)        000ED8
_OSCCON3                                       (abs)        000EDA
_OSCEN                                         (abs)        000EDC
_OSCFRQ                                        (abs)        000EDE
_OSCILLATOR_Initialize                         text48       01C104
_OSCTUNE                                       (abs)        000EDD
_OledFont                                      mediumconst  00E0C7
_PCON0bits                                     (abs)        000FD7
_PIE0bits                                      (abs)        000EC2
_PIE1bits                                      (abs)        000EC3
_PIE3bits                                      (abs)        000EC5
_PIE4bits                                      (abs)        000EC6
_PIE6bits                                      (abs)        000EC8
_PIN_MANAGER_IOC                               text153      01C188
_PIN_MANAGER_Initialize                        text45       01A65A
_PIR0bits                                      (abs)        000ECA
_PIR1bits                                      (abs)        000ECB
_PIR3bits                                      (abs)        000ECD
_PIR4bits                                      (abs)        000ECE
_PIR6bits                                      (abs)        000ED0
_PIR7bits                                      (abs)        000ED1
_PMD0                                          (abs)        000EE1
_PMD1                                          (abs)        000EE2
_PMD2                                          (abs)        000EE3
_PMD3                                          (abs)        000EE4
_PMD4                                          (abs)        000EE5
_PMD5                                          (abs)        000EE6
_PMD_Initialize                                text44       01C02C
_PORTBbits                                     (abs)        000F8E
_PR2                                           (abs)        000FBC
_QIChargeIOCHandler                            text156      01C048
_QIErrorTimerHandler                           text147      01C132
_QIIdleChargedTimerHandler                     text120      01BFB2
_QIIdleIOCHandler                              text161      01C19C
_QI_charge_time                                bssBANK2     0002B2
_QI_current_edge                               bssBANK1     000196
_RB4PPS                                        (abs)        000EF3
_RB5PPS                                        (abs)        000EF4
_RC2REG                                        (abs)        000E99
_RC2STA                                        (abs)        000E9D
_RC2STAbits                                    (abs)        000E9D
_RC4PPS                                        (abs)        000EFB
_RX2PPS                                        (abs)        000E8D
_SLRCONA                                       (abs)        000F0E
_SLRCONB                                       (abs)        000F16
_SLRCONC                                       (abs)        000F1E
_SP2BRGH                                       (abs)        000E9C
_SP2BRGL                                       (abs)        000E9B
_SSP2ADD                                       (abs)        000E93
_SSP2BUF                                       (abs)        000E92
_SSP2CLKPPS                                    (abs)        000E8F
_SSP2CON1                                      (abs)        000E96
_SSP2CON1bits                                  (abs)        000E96
_SSP2CON2bits                                  (abs)        000E97
_SSP2CON3                                      (abs)        000E98
_SSP2DATPPS                                    (abs)        000E90
_SSP2STAT                                      (abs)        000E95
_SYSTEM_Initialize                             text34       01B89E
_T0CON0                                        (abs)        000FD5
_T0CON0bits                                    (abs)        000FD5
_T0CON1                                        (abs)        000FD6
_T1CLK                                         (abs)        000FD2
_T1CON                                         (abs)        000FCF
_T1CONbits                                     (abs)        000FCF
_T1GATE                                        (abs)        000FD1
_T1GCON                                        (abs)        000FD0
_T1GCONbits                                    (abs)        000FD0
_T2CLKCON                                      (abs)        000FBF
_T2CON                                         (abs)        000FBD
_T2CONbits                                     (abs)        000FBD
_T2HLT                                         (abs)        000FBE
_T2HLTbits                                     (abs)        000FBE
_T2PR                                          (abs)        000FBC
_T2RST                                         (abs)        000FC0
_T2RSTbits                                     (abs)        000FC0
_T2TMR                                         (abs)        000FBB
_T3CLK                                         (abs)        000FCC
_T3CON                                         (abs)        000FC9
_T3CONbits                                     (abs)        000FC9
_T3GATE                                        (abs)        000FCB
_T3GCON                                        (abs)        000FCA
_T3GCONbits                                    (abs)        000FCA
_T5CLK                                         (abs)        000FC6
_T5CON                                         (abs)        000FC3
_T5CONbits                                     (abs)        000FC3
_T5GATE                                        (abs)        000FC5
_T5GCON                                        (abs)        000FC4
_T5GCONbits                                    (abs)        000FC4
_TABLAT                                        (abs)        000FF5
_TBLPTRH                                       (abs)        000FF7
_TBLPTRL                                       (abs)        000FF6
_TBLPTRU                                       (abs)        000FF8
_TMR0H                                         (abs)        000FD4
_TMR0L                                         (abs)        000FD3
_TMR0_DefaultInterruptHandler                  text151      01C3BA
_TMR0_ISR                                      text150      01BDC6
_TMR0_Initialize                               text42       01BCD0
_TMR0_InterruptHandler                         bssBANK1     000177
_TMR0_SetInterruptHandler                      text43       01C25E
_TMR1H                                         (abs)        000FCE
_TMR1L                                         (abs)        000FCD
_TMR1_DefaultInterruptHandler                  text148      01C3B8
_TMR1_ISR                                      text146      01BB1C
_TMR1_Initialize                               text40       01B3AE
_TMR1_InterruptHandler                         bssBANK1     00016E
_TMR1_Reload                                   text32       01C226
_TMR1_SetInterruptHandler                      text41       01C250
_TMR1_StartTimer                               text165      01C3A4
_TMR1_StopTimer                                text31       01C390
_TMR1_WriteTimer                               text33       01BF52
_TMR2                                          (abs)        000FBB
_TMR2_DefaultInterruptHandler                  text127      01C3B6
_TMR2_ISR                                      text125      01BD9E
_TMR2_Initialize                               text38       01BB50
_TMR2_InterruptHandler                         bssBANK1     000174
_TMR2_SetInterruptHandler                      text39       01C242
_TMR2_Start                                    text205      01C3A8
_TMR2_StartTimer                               text204      01C382
_TMR2_Stop                                     text129      01C398
_TMR2_StopTimer                                text128      01C376
_TMR3H                                         (abs)        000FC8
_TMR3L                                         (abs)        000FC7
_TMR3_DefaultInterruptHandler                  text121      01C3B4
_TMR3_ISR                                      text119      01BAE8
_TMR3_Initialize                               text36       01B35E
_TMR3_InterruptHandler                         bssBANK1     000171
_TMR3_Reload                                   text29       01C218
_TMR3_SetInterruptHandler                      text37       01C234
_TMR3_StartTimer                               text164      01C3A0
_TMR3_StopTimer                                text28       01C38C
_TMR3_WriteTimer                               text30       01BF32
_TMR5H                                         (abs)        000FC2
_TMR5L                                         (abs)        000FC1
_TMR5_Initialize                               text35       01B956
_TMR5_StopTimer                                text27       01C388
_TMR5_WriteTimer                               text26       01BF12
_TRISA                                         (abs)        000F88
_TRISB                                         (abs)        000F89
_TRISC                                         (abs)        000F8A
_TX2REG                                        (abs)        000E9A
_TX2STA                                        (abs)        000E9E
_TX2STAbits                                    (abs)        000E9E
_WPUA                                          (abs)        000F10
_WPUB                                          (abs)        000F18
_WPUC                                          (abs)        000F20
_WPUE                                          (abs)        000F2D
__CFG_BOREN$SBORDIS                            (abs)        000000
__CFG_BORV$VBOR_2P45                           (abs)        000000
__CFG_CLKOUTEN$OFF                             (abs)        000000
__CFG_CP$OFF                                   (abs)        000000
__CFG_CPD$OFF                                  (abs)        000000
__CFG_CSWEN$ON                                 (abs)        000000
__CFG_DEBUG$OFF                                (abs)        000000
__CFG_EBTR0$OFF                                (abs)        000000
__CFG_EBTR1$OFF                                (abs)        000000
__CFG_EBTR2$OFF                                (abs)        000000
__CFG_EBTR3$OFF                                (abs)        000000
__CFG_EBTR4$OFF                                (abs)        000000
__CFG_EBTR5$OFF                                (abs)        000000
__CFG_EBTR6$OFF                                (abs)        000000
__CFG_EBTR7$OFF                                (abs)        000000
__CFG_EBTRB$OFF                                (abs)        000000
__CFG_FCMEN$ON                                 (abs)        000000
__CFG_FEXTOSC$OFF                              (abs)        000000
__CFG_IDLOC0$                                  (abs)        00000D
__CFG_IDLOC1$                                  (abs)        00000E
__CFG_IDLOC2$                                  (abs)        00000A
__CFG_IDLOC3$                                  (abs)        00000D
__CFG_IDLOC4$                                  (abs)        00000B
__CFG_IDLOC5$                                  (abs)        00000E
__CFG_IDLOC6$                                  (abs)        00000E
__CFG_IDLOC7$                                  (abs)        00000F
__CFG_LPBOREN$OFF                              (abs)        000000
__CFG_LVP$OFF                                  (abs)        000000
__CFG_MCLRE$EXTMCLR                            (abs)        000000
__CFG_PPS1WAY$ON                               (abs)        000000
__CFG_PWRTE$ON                                 (abs)        000000
__CFG_RSTOSC$HFINTOSC_64MHZ                    (abs)        000000
__CFG_SCANE$ON                                 (abs)        000000
__CFG_STVREN$ON                                (abs)        000000
__CFG_WDTCCS$LFINTOSC                          (abs)        000000
__CFG_WDTCPS$WDTCPS_11                         (abs)        000000
__CFG_WDTCWS$WDTCWS_7                          (abs)        000000
__CFG_WDTE$NSLEEP                              (abs)        000000
__CFG_WRT0$OFF                                 (abs)        000000
__CFG_WRT1$OFF                                 (abs)        000000
__CFG_WRT2$OFF                                 (abs)        000000
__CFG_WRT3$OFF                                 (abs)        000000
__CFG_WRT4$OFF                                 (abs)        000000
__CFG_WRT5$OFF                                 (abs)        000000
__CFG_WRT6$OFF                                 (abs)        000000
__CFG_WRT7$OFF                                 (abs)        000000
__CFG_WRTB$OFF                                 (abs)        000000
__CFG_WRTC$OFF                                 (abs)        000000
__CFG_WRTD$OFF                                 (abs)        000000
__CFG_XINST$OFF                                (abs)        000000
__CFG_ZCD$OFF                                  (abs)        000000
__HRAM                                         (abs)        000000
__Habs1                                        abs1         000000
__Hbank0                                       bank0        000000
__Hbank1                                       bank1        000000
__Hbank10                                      bank10       000000
__Hbank11                                      bank11       000000
__Hbank12                                      bank12       000000
__Hbank13                                      bank13       000000
__Hbank14                                      bank14       000000
__Hbank2                                       bank2        000000
__Hbank3                                       bank3        000000
__Hbank4                                       bank4        000000
__Hbank5                                       bank5        000000
__Hbank6                                       bank6        000000
__Hbank7                                       bank7        000000
__Hbank8                                       bank8        000000
__Hbank9                                       bank9        000000
__Hbigbss                                      bigbss       000000
__Hbigdata                                     bigdata      000000
__Hbigram                                      bigram       000000
__HbitbssBANK0                                 bitbssBANK0  000000
__Hbss                                         bss          000000
__HbssBANK0                                    bssBANK0     000000
__HbssBANK1                                    bssBANK1     000000
__HbssBANK2                                    bssBANK2     000000
__HbssBANK3                                    bssBANK3     000000
__HbssBANK4                                    bssBANK4     000000
__Hcinit                                       cinit        000000
__Hclrtext                                     clrtext      000000
__Hcomram                                      comram       000000
__Hconfig                                      config       30000C
__Hconst                                       const        000000
__HcstackBANK0                                 cstackBANK0  000000
__HcstackBANK1                                 cstackBANK1  000000
__HcstackBANK2                                 cstackBANK2  000000
__HcstackBANK3                                 cstackBANK3  000000
__HcstackBANK4                                 cstackBANK4  000000
__HcstackCOMRAM                                cstackCOMRAM 000000
__Hdata                                        data         000000
__HdataBANK0                                   dataBANK0    000000
__HdataBANK2                                   dataBANK2    000000
__HdataBANK3                                   dataBANK3    000000
__Heeprom_data                                 eeprom_data  000000
__Hfarbss                                      farbss       000000
__Hfardata                                     fardata      000000
__Hibigdata                                    ibigdata     000000
__Hidata                                       idata        000000
__HidataBANK0                                  idataBANK0   000000
__HidataBANK2                                  idataBANK2   000000
__HidataBANK3                                  idataBANK3   000000
__Hidloc                                       idloc        200010
__Hifardata                                    ifardata     000000
__Hinit                                        init         0000C6
__Hintcode                                     intcode      00000E
__Hintcode_body                                intcode_body 000000
__Hintcodelo                                   intcodelo    0000C2
__Hintentry                                    intentry     000000
__Hintret                                      intret       000000
__Hintsave_regs                                intsave_regs 000000
__Hirdata                                      irdata       000000
__Hmediumconst                                 mediumconst  010000
__HnvBANK2                                     nvBANK2      000000
__HnvFARRAM                                    nvFARRAM     000000
__Hnvbit                                       nvbit        000000
__Hnvrram                                      nvrram       000000
__Hparam                                       rparam       000000
__Hpowerup                                     powerup      0000C2
__Hram                                         ram          000000
__Hramtop                                      ramtop       000F00
__Hrbit                                        rbit         000000
__Hrbss                                        rbss         000000
__Hrdata                                       rdata        000000
__Hreset_vec                                   reset_vec    000004
__Hrparam                                      rparam       000000
__Hsfr                                         sfr          000000
__Hsmallconst                                  smallconst   000000
__Hspace_0                                     (abs)        30000C
__Hspace_1                                     (abs)        0007E1
__Hspace_2                                     (abs)        000000
__Hstack                                       stack        000000
__Hstruct                                      struct       000000
__Htemp                                        temp         00005F
__Htext                                        text         000000
__Htext0                                       text0        000000
__Htext1                                       text1        000000
__Htext10                                      text10       000000
__Htext100                                     text100      000000
__Htext101                                     text101      000000
__Htext102                                     text102      000000
__Htext103                                     text103      000000
__Htext104                                     text104      000000
__Htext105                                     text105      000000
__Htext106                                     text106      000000
__Htext107                                     text107      000000
__Htext108                                     text108      000000
__Htext109                                     text109      000000
__Htext11                                      text11       000000
__Htext110                                     text110      000000
__Htext111                                     text111      000000
__Htext112                                     text112      000000
__Htext113                                     text113      000000
__Htext114                                     text114      000000
__Htext115                                     text115      000000
__Htext116                                     text116      000000
__Htext117                                     text117      000000
__Htext119                                     text119      000000
__Htext12                                      text12       000000
__Htext120                                     text120      000000
__Htext121                                     text121      000000
__Htext122                                     text122      000000
__Htext123                                     text123      000000
__Htext124                                     text124      000000
__Htext125                                     text125      000000
__Htext126                                     text126      000000
__Htext127                                     text127      000000
__Htext128                                     text128      000000
__Htext129                                     text129      000000
__Htext13                                      text13       000000
__Htext130                                     text130      000000
__Htext131                                     text131      000000
__Htext132                                     text132      000000
__Htext133                                     text133      000000
__Htext134                                     text134      000000
__Htext135                                     text135      000000
__Htext136                                     text136      000000
__Htext137                                     text137      000000
__Htext138                                     text138      000000
__Htext139                                     text139      000000
__Htext14                                      text14       000000
__Htext140                                     text140      000000
__Htext141                                     text141      000000
__Htext142                                     text142      000000
__Htext143                                     text143      000000
__Htext144                                     text144      000000
__Htext146                                     text146      000000
__Htext147                                     text147      000000
__Htext148                                     text148      000000
__Htext149                                     text149      000000
__Htext15                                      text15       000000
__Htext150                                     text150      000000
__Htext151                                     text151      000000
__Htext152                                     text152      000000
__Htext153                                     text153      000000
__Htext154                                     text154      000000
__Htext155                                     text155      000000
__Htext156                                     text156      000000
__Htext157                                     text157      000000
__Htext158                                     text158      000000
__Htext159                                     text159      000000
__Htext16                                      text16       000000
__Htext160                                     text160      000000
__Htext161                                     text161      000000
__Htext162                                     text162      000000
__Htext163                                     text163      000000
__Htext164                                     text164      000000
__Htext165                                     text165      000000
__Htext166                                     text166      000000
__Htext167                                     text167      000000
__Htext168                                     text168      000000
__Htext169                                     text169      000000
__Htext17                                      text17       000000
__Htext170                                     text170      000000
__Htext171                                     text171      000000
__Htext172                                     text172      000000
__Htext173                                     text173      000000
__Htext174                                     text174      000000
__Htext175                                     text175      000000
__Htext176                                     text176      000000
__Htext177                                     text177      000000
__Htext178                                     text178      000000
__Htext179                                     text179      000000
__Htext18                                      text18       000000
__Htext180                                     text180      000000
__Htext181                                     text181      000000
__Htext182                                     text182      000000
__Htext183                                     text183      000000
__Htext184                                     text184      000000
__Htext185                                     text185      000000
__Htext186                                     text186      000000
__Htext187                                     text187      000000
__Htext188                                     text188      000000
__Htext189                                     text189      000000
__Htext19                                      text19       000000
__Htext190                                     text190      000000
__Htext191                                     text191      000000
__Htext192                                     text192      000000
__Htext193                                     text193      000000
__Htext194                                     text194      000000
__Htext195                                     text195      000000
__Htext196                                     text196      000000
__Htext197                                     text197      000000
__Htext198                                     text198      000000
__Htext199                                     text199      000000
__Htext2                                       text2        000000
__Htext20                                      text20       000000
__Htext200                                     text200      000000
__Htext201                                     text201      000000
__Htext202                                     text202      000000
__Htext203                                     text203      000000
__Htext204                                     text204      000000
__Htext205                                     text205      000000
__Htext206                                     text206      000000
__Htext207                                     text207      000000
__Htext208                                     text208      000000
__Htext209                                     text209      000000
__Htext21                                      text21       000000
__Htext210                                     text210      000000
__Htext211                                     text211      000000
__Htext22                                      text22       000000
__Htext23                                      text23       000000
__Htext24                                      text24       000000
__Htext25                                      text25       000000
__Htext26                                      text26       000000
__Htext27                                      text27       000000
__Htext28                                      text28       000000
__Htext29                                      text29       000000
__Htext3                                       text3        000000
__Htext30                                      text30       000000
__Htext31                                      text31       000000
__Htext32                                      text32       000000
__Htext33                                      text33       000000
__Htext34                                      text34       000000
__Htext35                                      text35       000000
__Htext36                                      text36       000000
__Htext37                                      text37       000000
__Htext38                                      text38       000000
__Htext39                                      text39       000000
__Htext4                                       text4        000000
__Htext40                                      text40       000000
__Htext41                                      text41       000000
__Htext42                                      text42       000000
__Htext43                                      text43       000000
__Htext44                                      text44       000000
__Htext45                                      text45       000000
__Htext46                                      text46       000000
__Htext47                                      text47       000000
__Htext48                                      text48       000000
__Htext49                                      text49       000000
__Htext5                                       text5        000000
__Htext50                                      text50       000000
__Htext51                                      text51       000000
__Htext52                                      text52       000000
__Htext53                                      text53       000000
__Htext54                                      text54       000000
__Htext55                                      text55       000000
__Htext56                                      text56       000000
__Htext57                                      text57       000000
__Htext58                                      text58       000000
__Htext59                                      text59       000000
__Htext6                                       text6        000000
__Htext60                                      text60       000000
__Htext61                                      text61       000000
__Htext62                                      text62       000000
__Htext63                                      text63       000000
__Htext64                                      text64       000000
__Htext65                                      text65       000000
__Htext66                                      text66       000000
__Htext67                                      text67       000000
__Htext68                                      text68       000000
__Htext69                                      text69       000000
__Htext7                                       text7        000000
__Htext70                                      text70       000000
__Htext71                                      text71       000000
__Htext72                                      text72       000000
__Htext73                                      text73       000000
__Htext74                                      text74       000000
__Htext75                                      text75       000000
__Htext76                                      text76       000000
__Htext77                                      text77       000000
__Htext78                                      text78       000000
__Htext79                                      text79       000000
__Htext8                                       text8        000000
__Htext80                                      text80       000000
__Htext81                                      text81       000000
__Htext82                                      text82       000000
__Htext83                                      text83       000000
__Htext84                                      text84       000000
__Htext85                                      text85       000000
__Htext86                                      text86       000000
__Htext87                                      text87       000000
__Htext88                                      text88       000000
__Htext89                                      text89       000000
__Htext9                                       text9        000000
__Htext90                                      text90       000000
__Htext91                                      text91       000000
__Htext92                                      text92       000000
__Htext93                                      text93       000000
__Htext94                                      text94       000000
__Htext95                                      text95       000000
__Htext96                                      text96       000000
__Htext97                                      text97       000000
__Htext98                                      text98       000000
__Htext99                                      text99       000000
__LRAM                                         (abs)        000001
__Labs1                                        abs1         000000
__Lbank0                                       bank0        000000
__Lbank1                                       bank1        000000
__Lbank10                                      bank10       000000
__Lbank11                                      bank11       000000
__Lbank12                                      bank12       000000
__Lbank13                                      bank13       000000
__Lbank14                                      bank14       000000
__Lbank2                                       bank2        000000
__Lbank3                                       bank3        000000
__Lbank4                                       bank4        000000
__Lbank5                                       bank5        000000
__Lbank6                                       bank6        000000
__Lbank7                                       bank7        000000
__Lbank8                                       bank8        000000
__Lbank9                                       bank9        000000
__Lbigbss                                      bigbss       000000
__Lbigdata                                     bigdata      000000
__Lbigram                                      bigram       000000
__LbitbssBANK0                                 bitbssBANK0  000000
__Lbss                                         bss          000000
__LbssBANK0                                    bssBANK0     000000
__LbssBANK1                                    bssBANK1     000000
__LbssBANK2                                    bssBANK2     000000
__LbssBANK3                                    bssBANK3     000000
__LbssBANK4                                    bssBANK4     000000
__Lcinit                                       cinit        000000
__Lclrtext                                     clrtext      000000
__Lcomram                                      comram       000000
__Lconfig                                      config       300000
__Lconst                                       const        000000
__LcstackBANK0                                 cstackBANK0  000000
__LcstackBANK1                                 cstackBANK1  000000
__LcstackBANK2                                 cstackBANK2  000000
__LcstackBANK3                                 cstackBANK3  000000
__LcstackBANK4                                 cstackBANK4  000000
__LcstackCOMRAM                                cstackCOMRAM 000000
__Ldata                                        data         000000
__LdataBANK0                                   dataBANK0    000000
__LdataBANK2                                   dataBANK2    000000
__LdataBANK3                                   dataBANK3    000000
__Leeprom_data                                 eeprom_data  000000
__Lfarbss                                      farbss       000000
__Lfardata                                     fardata      000000
__Libigdata                                    ibigdata     000000
__Lidata                                       idata        000000
__LidataBANK0                                  idataBANK0   000000
__LidataBANK2                                  idataBANK2   000000
__LidataBANK3                                  idataBANK3   000000
__Lidloc                                       idloc        200000
__Lifardata                                    ifardata     000000
__Linit                                        init         0000C2
__Lintcode                                     intcode      000008
__Lintcode_body                                intcode_body 000000
__Lintcodelo                                   intcodelo    000018
__Lintentry                                    intentry     000000
__Lintret                                      intret       000000
__Lintsave_regs                                intsave_regs 000000
__Lirdata                                      irdata       000000
__Lmediumconst                                 mediumconst  00E03E
__LnvBANK2                                     nvBANK2      000000
__LnvFARRAM                                    nvFARRAM     000000
__Lnvbit                                       nvbit        000000
__Lnvrram                                      nvrram       000000
__Lparam                                       rparam       000000
__Lpowerup                                     powerup      0000C2
__Lram                                         ram          000000
__Lramtop                                      ramtop       000F00
__Lrbit                                        rbit         000000
__Lrbss                                        rbss         000000
__Lrdata                                       rdata        000000
__Lreset_vec                                   reset_vec    000000
__Lrparam                                      rparam       000000
__Lsfr                                         sfr          000000
__Lsmallconst                                  smallconst   000000
__Lspace_0                                     (abs)        000000
__Lspace_1                                     (abs)        000000
__Lspace_2                                     (abs)        000000
__Lstack                                       stack        000000
__Lstruct                                      struct       000000
__Ltemp                                        temp         00005E
__Ltext                                        text         000000
__Ltext0                                       text0        000000
__Ltext1                                       text1        000000
__Ltext10                                      text10       000000
__Ltext100                                     text100      000000
__Ltext101                                     text101      000000
__Ltext102                                     text102      000000
__Ltext103                                     text103      000000
__Ltext104                                     text104      000000
__Ltext105                                     text105      000000
__Ltext106                                     text106      000000
__Ltext107                                     text107      000000
__Ltext108                                     text108      000000
__Ltext109                                     text109      000000
__Ltext11                                      text11       000000
__Ltext110                                     text110      000000
__Ltext111                                     text111      000000
__Ltext112                                     text112      000000
__Ltext113                                     text113      000000
__Ltext114                                     text114      000000
__Ltext115                                     text115      000000
__Ltext116                                     text116      000000
__Ltext117                                     text117      000000
__Ltext119                                     text119      000000
__Ltext12                                      text12       000000
__Ltext120                                     text120      000000
__Ltext121                                     text121      000000
__Ltext122                                     text122      000000
__Ltext123                                     text123      000000
__Ltext124                                     text124      000000
__Ltext125                                     text125      000000
__Ltext126                                     text126      000000
__Ltext127                                     text127      000000
__Ltext128                                     text128      000000
__Ltext129                                     text129      000000
__Ltext13                                      text13       000000
__Ltext130                                     text130      000000
__Ltext131                                     text131      000000
__Ltext132                                     text132      000000
__Ltext133                                     text133      000000
__Ltext134                                     text134      000000
__Ltext135                                     text135      000000
__Ltext136                                     text136      000000
__Ltext137                                     text137      000000
__Ltext138                                     text138      000000
__Ltext139                                     text139      000000
__Ltext14                                      text14       000000
__Ltext140                                     text140      000000
__Ltext141                                     text141      000000
__Ltext142                                     text142      000000
__Ltext143                                     text143      000000
__Ltext144                                     text144      000000
__Ltext146                                     text146      000000
__Ltext147                                     text147      000000
__Ltext148                                     text148      000000
__Ltext149                                     text149      000000
__Ltext15                                      text15       000000
__Ltext150                                     text150      000000
__Ltext151                                     text151      000000
__Ltext152                                     text152      000000
__Ltext153                                     text153      000000
__Ltext154                                     text154      000000
__Ltext155                                     text155      000000
__Ltext156                                     text156      000000
__Ltext157                                     text157      000000
__Ltext158                                     text158      000000
__Ltext159                                     text159      000000
__Ltext16                                      text16       000000
__Ltext160                                     text160      000000
__Ltext161                                     text161      000000
__Ltext162                                     text162      000000
__Ltext163                                     text163      000000
__Ltext164                                     text164      000000
__Ltext165                                     text165      000000
__Ltext166                                     text166      000000
__Ltext167                                     text167      000000
__Ltext168                                     text168      000000
__Ltext169                                     text169      000000
__Ltext17                                      text17       000000
__Ltext170                                     text170      000000
__Ltext171                                     text171      000000
__Ltext172                                     text172      000000
__Ltext173                                     text173      000000
__Ltext174                                     text174      000000
__Ltext175                                     text175      000000
__Ltext176                                     text176      000000
__Ltext177                                     text177      000000
__Ltext178                                     text178      000000
__Ltext179                                     text179      000000
__Ltext18                                      text18       000000
__Ltext180                                     text180      000000
__Ltext181                                     text181      000000
__Ltext182                                     text182      000000
__Ltext183                                     text183      000000
__Ltext184                                     text184      000000
__Ltext185                                     text185      000000
__Ltext186                                     text186      000000
__Ltext187                                     text187      000000
__Ltext188                                     text188      000000
__Ltext189                                     text189      000000
__Ltext19                                      text19       000000
__Ltext190                                     text190      000000
__Ltext191                                     text191      000000
__Ltext192                                     text192      000000
__Ltext193                                     text193      000000
__Ltext194                                     text194      000000
__Ltext195                                     text195      000000
__Ltext196                                     text196      000000
__Ltext197                                     text197      000000
__Ltext198                                     text198      000000
__Ltext199                                     text199      000000
__Ltext2                                       text2        000000
__Ltext20                                      text20       000000
__Ltext200                                     text200      000000
__Ltext201                                     text201      000000
__Ltext202                                     text202      000000
__Ltext203                                     text203      000000
__Ltext204                                     text204      000000
__Ltext205                                     text205      000000
__Ltext206                                     text206      000000
__Ltext207                                     text207      000000
__Ltext208                                     text208      000000
__Ltext209                                     text209      000000
__Ltext21                                      text21       000000
__Ltext210                                     text210      000000
__Ltext211                                     text211      000000
__Ltext22                                      text22       000000
__Ltext23                                      text23       000000
__Ltext24                                      text24       000000
__Ltext25                                      text25       000000
__Ltext26                                      text26       000000
__Ltext27                                      text27       000000
__Ltext28                                      text28       000000
__Ltext29                                      text29       000000
__Ltext3                                       text3        000000
__Ltext30                                      text30       000000
__Ltext31                                      text31       000000
__Ltext32                                      text32       000000
__Ltext33                                      text33       000000
__Ltext34                                      text34       000000
__Ltext35                                      text35       000000
__Ltext36                                      text36       000000
__Ltext37                                      text37       000000
__Ltext38                                      text38       000000
__Ltext39                                      text39       000000
__Ltext4                                       text4        000000
__Ltext40                                      text40       000000
__Ltext41                                      text41       000000
__Ltext42                                      text42       000000
__Ltext43                                      text43       000000
__Ltext44                                      text44       000000
__Ltext45                                      text45       000000
__Ltext46                                      text46       000000
__Ltext47                                      text47       000000
__Ltext48                                      text48       000000
__Ltext49                                      text49       000000
__Ltext5                                       text5        000000
__Ltext50                                      text50       000000
__Ltext51                                      text51       000000
__Ltext52                                      text52       000000
__Ltext53                                      text53       000000
__Ltext54                                      text54       000000
__Ltext55                                      text55       000000
__Ltext56                                      text56       000000
__Ltext57                                      text57       000000
__Ltext58                                      text58       000000
__Ltext59                                      text59       000000
__Ltext6                                       text6        000000
__Ltext60                                      text60       000000
__Ltext61                                      text61       000000
__Ltext62                                      text62       000000
__Ltext63                                      text63       000000
__Ltext64                                      text64       000000
__Ltext65                                      text65       000000
__Ltext66                                      text66       000000
__Ltext67                                      text67       000000
__Ltext68                                      text68       000000
__Ltext69                                      text69       000000
__Ltext7                                       text7        000000
__Ltext70                                      text70       000000
__Ltext71                                      text71       000000
__Ltext72                                      text72       000000
__Ltext73                                      text73       000000
__Ltext74                                      text74       000000
__Ltext75                                      text75       000000
__Ltext76                                      text76       000000
__Ltext77                                      text77       000000
__Ltext78                                      text78       000000
__Ltext79                                      text79       000000
__Ltext8                                       text8        000000
__Ltext80                                      text80       000000
__Ltext81                                      text81       000000
__Ltext82                                      text82       000000
__Ltext83                                      text83       000000
__Ltext84                                      text84       000000
__Ltext85                                      text85       000000
__Ltext86                                      text86       000000
__Ltext87                                      text87       000000
__Ltext88                                      text88       000000
__Ltext89                                      text89       000000
__Ltext9                                       text9        000000
__Ltext90                                      text90       000000
__Ltext91                                      text91       000000
__Ltext92                                      text92       000000
__Ltext93                                      text93       000000
__Ltext94                                      text94       000000
__Ltext95                                      text95       000000
__Ltext96                                      text96       000000
__Ltext97                                      text97       000000
__Ltext98                                      text98       000000
__Ltext99                                      text99       000000
__S0                                           (abs)        30000C
__S1                                           (abs)        0004DA
__S2                                           (abs)        000000
___awdiv                                       text67       01AAFC
___awdiv@counter                               cstackBANK2  00020A
___awdiv@dividend                              cstackBANK2  000206
___awdiv@divisor                               cstackBANK2  000208
___awdiv@quotient                              cstackBANK2  00020C
___awdiv@sign                                  cstackBANK2  00020B
___awmod                                       text66       01AD0C
___awmod@counter                               cstackBANK2  000204
___awmod@dividend                              cstackBANK2  000200
___awmod@divisor                               cstackBANK2  000202
___awmod@sign                                  cstackBANK2  000205
___fladd                                       text79       016F4A
___fladd@a                                     cstackBANK2  000238
___fladd@aexp                                  cstackBANK2  000241
___fladd@b                                     cstackBANK2  000234
___fladd@bexp                                  cstackBANK2  000242
___fladd@grs                                   cstackBANK2  000243
___fladd@signs                                 cstackBANK2  000240
___fldiv                                       text97       018080
___fldiv@a                                     cstackBANK2  000204
___fldiv@aexp                                  cstackBANK2  000218
___fldiv@b                                     cstackBANK2  000200
___fldiv@bexp                                  cstackBANK2  000217
___fldiv@grs                                   cstackBANK2  000213
___fldiv@new_exp                               cstackBANK2  000211
___fldiv@rem                                   cstackBANK2  00020C
___fldiv@sign                                  cstackBANK2  000210
___fleq                                        text82       01A9E6
___fleq@ff1                                    cstackBANK2  000200
___fleq@ff2                                    cstackBANK2  000204
___flge                                        text81       019EF4
___flge@ff1                                    cstackBANK2  000200
___flge@ff2                                    cstackBANK2  000204
___flmul                                       text111      016550
___flmul@a                                     cstackBANK2  000212
___flmul@aexp                                  cstackBANK2  00021B
___flmul@b                                     cstackBANK2  00020E
___flmul@bexp                                  cstackBANK2  000220
___flmul@grs                                   cstackBANK2  00021C
___flmul@prod                                  cstackBANK2  000221
___flmul@sign                                  cstackBANK2  00021A
___flmul@temp                                  cstackBANK2  000225
___flneg                                       text80       01BBE4
___flneg@f1                                    cstackBANK2  000200
___flsub                                       text78       01B52E
___flsub@a                                     cstackBANK2  000248
___flsub@b                                     cstackBANK2  000244
___fltol                                       text77       01A2F0
___fltol@exp1                                  cstackBANK2  000239
___fltol@f1                                    cstackBANK2  000230
___fltol@sign1                                 cstackBANK2  000238
___inthi_sp                                    stack        000000
___intlo_sp                                    stack        000000
___lldiv                                       text95       01AB82
___lldiv@counter                               cstackBANK2  00020C
___lldiv@dividend                              cstackBANK2  000200
___lldiv@divisor                               cstackBANK2  000204
___lldiv@quotient                              cstackBANK2  000208
___llmod                                       text76       01ADEE
___llmod@counter                               cstackBANK2  000215
___llmod@dividend                              cstackBANK2  00020D
___llmod@divisor                               cstackBANK2  000211
___lwdiv                                       text73       01B216
___lwdiv@counter                               cstackBANK2  000209
___lwdiv@dividend                              cstackBANK2  000205
___lwdiv@divisor                               cstackBANK2  000207
___lwdiv@quotient                              cstackBANK2  00020A
___lwmod                                       text72       01B68E
___lwmod@counter                               cstackBANK2  000204
___lwmod@dividend                              cstackBANK2  000200
___lwmod@divisor                               cstackBANK2  000202
___param_bank                                  (abs)        000000
___rparam_used                                 (abs)        000001
___sp                                          stack        000000
___wmul                                        text94       01BD76
___wmul@multiplicand                           cstackBANK2  000202
___wmul@multiplier                             cstackBANK2  000200
___wmul@product                                cstackBANK2  000204
___xxtofl                                      text110      01943E
___xxtofl@arg                                  cstackBANK2  00020A
___xxtofl@exp                                  cstackBANK2  000209
___xxtofl@sign                                 cstackBANK2  000208
___xxtofl@val                                  cstackBANK2  000200
__accesstop                                    (abs)        000060
__activetblptr                                 (abs)        000003
__div_to_l_                                    text75       019B26
__div_to_l_@cntr                               cstackBANK2  00020C
__div_to_l_@exp1                               cstackBANK2  00020D
__div_to_l_@f1                                 cstackBANK2  000200
__div_to_l_@f2                                 cstackBANK2  000204
__div_to_l_@quot                               cstackBANK2  000208
__doprnt                                       text64       010000
__doprnt$4891                                  cstackBANK2  00025B
__doprnt$4892                                  cstackBANK2  00025D
__doprnt$4893                                  cstackBANK2  00025F
__doprnt$4894                                  cstackBANK2  000261
__doprnt$4895                                  cstackBANK2  000263
__doprnt$4896                                  cstackBANK2  000265
__doprnt$4897                                  cstackBANK2  000267
__doprnt$4898                                  cstackBANK2  000269
__doprnt$5940                                  cstackBANK2  000256
__doprnt@ap                                    cstackBANK2  000250
__doprnt@c                                     cstackBANK2  000283
__doprnt@cp                                    cstackBANK2  00026B
__doprnt@eexp                                  cstackBANK2  00026F
__doprnt@f                                     cstackBANK2  00024E
__doprnt@flag                                  cstackBANK2  000281
__doprnt@fval                                  cstackBANK2  000275
__doprnt@idx                                   cstackBANK2  00025A
__doprnt@len                                   cstackBANK2  00026D
__doprnt@pb                                    cstackBANK2  00024C
__doprnt@prec                                  cstackBANK2  00027F
__doprnt@tmpval                                cstackBANK2  000271
__doprnt@val                                   cstackBANK2  000279
__doprnt@width                                 cstackBANK2  00027D
__end_of_ADCC_ClearAccumulator                 text132      01C382
__end_of_ADCC_DefaultInterruptHandler          text194      01C3C6
__end_of_ADCC_DischargeSampleCapacitor         text131      01C370
__end_of_ADCC_GetConversionResult              text210      01C1D8
__end_of_ADCC_GetCurrentCountofConversions     text209      01C3B4
__end_of_ADCC_GetFilterValue                   text208      01C1C4
__end_of_ADCC_HasAccumulatorOverflowed         text207      01C336
__end_of_ADCC_Initialize                       text59       01B04E
__end_of_ADCC_SetADTIInterruptHandler          text60       01C2CE
__end_of_ADCC_StartConversion                  text130      01C2EA
__end_of_ADCC_StopConversion                   text206      01C3B0
__end_of_ADCC_ThresholdISR                     text193      01BE16
__end_of_ADC_PostProcessingHandler             text195      0155D8
__end_of_ADC_acquisitionTimerHandler           text126      01C0D0
__end_of_CCP2_CallBack                         text139      01B860
__end_of_CCP2_CaptureISR                       text138      01C104
__end_of_CCP2_Initialize                       text58       01BEF0
__end_of_EUSART2_Initialize                    text55       01AF22
__end_of_EUSART2_Read                          text20       01B89E
__end_of_EUSART2_Receive_ISR                   text174      01A5B8
__end_of_EUSART2_SetRxInterruptHandler         text57       01C2C0
__end_of_EUSART2_SetTxInterruptHandler         text56       01C2B2
__end_of_EUSART2_Transmit_ISR                  text137      01BBB4
__end_of_EUSART2_Write                         text69       01B68E
__end_of_EXT_INT_Initialize                    text52       01BA7E
__end_of_FLASH_ReadByte                        text92       01C0B6
__end_of_FLASH_ReadWord                        text91       01B79C
__end_of_FVR_Initialize                        text51       01C31E
__end_of_I2C2_BusCollisionISR                  text136      01C32A
__end_of_I2C2_FunctionComplete                 text135      01C0EA
__end_of_I2C2_ISR                              text133      018D10
__end_of_I2C2_Initialize                       text50       01BAB4
__end_of_I2C2_MasterRead                       text114      01B49E
__end_of_I2C2_MasterReadTRBBuild               text117      01B2BC
__end_of_I2C2_MasterTRBInsert                  text115      01A65A
__end_of_I2C2_MasterWrite                      text112      01B44E
__end_of_I2C2_MasterWriteTRBBuild              text113      01B64A
__end_of_I2C2_Stop                             text134      01B75A
__end_of_I2C2_WaitForLastPacketToComplete      text116      01C34A
__end_of_INT1_CallBack                         text171      01BECE
__end_of_INT1_DefaultInterruptHandler          text172      01C3C4
__end_of_INT1_ISR                              text170      01C35E
__end_of_INT1_SetInterruptHandler              text54       01C2A4
__end_of_INT2_CallBack                         text167      01BEAA
__end_of_INT2_DefaultInterruptHandler          text168      01C3C2
__end_of_INT2_ISR                              text166      01C354
__end_of_INT2_SetInterruptHandler              text53       01C296
__end_of_INTERRUPT_Initialize                  text49       01BF92
__end_of_INTERRUPT_InterruptManagerHigh        intcode_body 01A162
__end_of_INTERRUPT_InterruptManagerLow         intcodelo    0000C2
__end_of_IOCBF2_DefaultInterruptHandler        text160      01C3C0
__end_of_IOCBF2_ISR                            text159      01BD4E
__end_of_IOCBF2_SetInterruptHandler            text47       01C288
__end_of_IOCBF3_DefaultInterruptHandler        text155      01C3BE
__end_of_IOCBF3_ISR                            text154      01BD24
__end_of_IOCBF3_SetInterruptHandler            text46       01C27A
__end_of_LM73AcquisitionHandler                text108      019174
__end_of_LM73Convert                           text109      018080
__end_of_LM73TempSensorInitialize              text107      018F48
__end_of_OLED_Clear                            text104      01B91A
__end_of_OLED_Command                          text103      01AF88
__end_of_OLED_Init                             text102      01A8C8
__end_of_OLED_PutChar                          text105      01A2F0
__end_of_OLED_UpdateFromRAMBuffer              text98       019928
__end_of_OLED_WriteString                      text101      01B216
__end_of_OLED_YX                               text100      01B716
__end_of_OLED_updateHandler                    text61       013EB6
__end_of_OSCILLATOR_Initialize                 text48       01C11C
__end_of_OledFont                              mediumconst  00E3C7
__end_of_PIN_MANAGER_IOC                       text153      01C19C
__end_of_PIN_MANAGER_Initialize                text45       01A6FA
__end_of_PMD_Initialize                        text44       01C048
__end_of_QIChargeIOCHandler                    text156      01C064
__end_of_QIErrorTimerHandler                   text147      01C148
__end_of_QIIdleChargedTimerHandler             text120      01BFD2
__end_of_QIIdleIOCHandler                      text161      01C1B0
__end_of_SYSTEM_Initialize                     text34       01B8DC
__end_of_TMR0_DefaultInterruptHandler          text151      01C3BC
__end_of_TMR0_ISR                              text150      01BDEE
__end_of_TMR0_Initialize                       text42       01BCFA
__end_of_TMR0_SetInterruptHandler              text43       01C26C
__end_of_TMR1_DefaultInterruptHandler          text148      01C3BA
__end_of_TMR1_ISR                              text146      01BB50
__end_of_TMR1_Initialize                       text40       01B3FE
__end_of_TMR1_Reload                           text32       01C234
__end_of_TMR1_SetInterruptHandler              text41       01C25E
__end_of_TMR1_StartTimer                       text165      01C3A8
__end_of_TMR1_StopTimer                        text31       01C394
__end_of_TMR1_WriteTimer                       text33       01BF72
__end_of_TMR2_DefaultInterruptHandler          text127      01C3B8
__end_of_TMR2_ISR                              text125      01BDC6
__end_of_TMR2_Initialize                       text38       01BB82
__end_of_TMR2_SetInterruptHandler              text39       01C250
__end_of_TMR2_Start                            text205      01C3AC
__end_of_TMR2_StartTimer                       text204      01C388
__end_of_TMR2_Stop                             text129      01C39C
__end_of_TMR2_StopTimer                        text128      01C37C
__end_of_TMR3_DefaultInterruptHandler          text121      01C3B6
__end_of_TMR3_ISR                              text119      01BB1C
__end_of_TMR3_Initialize                       text36       01B3AE
__end_of_TMR3_Reload                           text29       01C226
__end_of_TMR3_SetInterruptHandler              text37       01C242
__end_of_TMR3_StartTimer                       text164      01C3A4
__end_of_TMR3_StopTimer                        text28       01C390
__end_of_TMR3_WriteTimer                       text30       01BF52
__end_of_TMR5_Initialize                       text35       01B992
__end_of_TMR5_StopTimer                        text27       01C38C
__end_of_TMR5_WriteTimer                       text26       01BF32
__end_of___awdiv                               text67       01AB82
__end_of___awmod                               text66       01AD7E
__end_of___fladd                               text79       017258
__end_of___fldiv                               text97       01830A
__end_of___fleq                                text82       01AA72
__end_of___flge                                text81       019FC6
__end_of___flmul                               text111      0168A4
__end_of___flneg                               text80       01BC14
__end_of___flsub                               text78       01B576
__end_of___fltol                               text77       01A3AC
__end_of___lldiv                               text95       01AC06
__end_of___llmod                               text76       01AE56
__end_of___lwdiv                               text73       01B26A
__end_of___lwmod                               text72       01B6D2
__end_of___wmul                                text94       01BD9E
__end_of___xxtofl                              text110      019582
__end_of__div_to_l_                            text75       019C1C
__end_of__doprnt                               text64       011724
__end_of__initialization                       cinit        01A9DC
__end_of__npowers_                             mediumconst  00E0A7
__end_of__powers_                              mediumconst  00E073
__end_of__tdiv_to_l_                           text74       019A28
__end_of_clearADCErrors                        text15       01C1F8
__end_of_clearI2CErrors                        text14       01C02C
__end_of_clearUARTErrors                       text13       01C312
__end_of_dpowers                               mediumconst  00E3EF
__end_of_fabs                                  text202      01BA46
__end_of_freqMeasConvert                       text140      01A22C
__end_of_freqMeasStartCaptures                 text25       01C340
__end_of_fround                                text71       017B36
__end_of_getADCError                           text19       01C132
__end_of_getCauseOfReset                       text24       01B1BE
__end_of_getCauseOfResetString                 text12       01BBE4
__end_of_getCauseOfResetStringSmall            text96       01BC74
__end_of_getDaysFromOnTime                     text93       01A958
__end_of_getDeviceID                           text90       01BFB2
__end_of_getDeviceIDString                     text11       01A830
__end_of_getHoursFromOnTime                    text89       019EF4
__end_of_getI2CError                           text18       01BD76
__end_of_getMajorRevisionID                    text88       01B9CE
__end_of_getMinorRevisionID                    text87       01BE3C
__end_of_getMinutesFromOnTime                  text86       01943E
__end_of_getNXQChargeStateString               text10       01B108
__end_of_getNXQChargeStateStringCaps           text85       01B164
__end_of_getSecondsFromOnTime                  text84       0192EE
__end_of_getStringSecondsAsTime                text8        0161CA
__end_of_getUARTError                          text17       01C376
__end_of_getUserID                             text7        01BAE8
__end_of_getYearsFromOnTime                    text83       01BC44
__end_of_heartbeatTimerHandler                 text152      01A798
__end_of_hexpowers                             mediumconst  00E0C7
__end_of_isdigit                               text70       01BF12
__end_of_leftCapTouchHandler                   text173      01C174
__end_of_main                                  text0        018A9A
__end_of_memmove                               text106      01A514
__end_of_printf                                text23       01B956
__end_of_putch                                 text68       01C188
__end_of_rightCapTouchHandler                  text169      01C15E
__end_of_ringBufferLUT                         text2        014C64
__end_of_scale                                 text65       015A0C
__end_of_sprintf                               text63       01B52E
__end_of_strcat                                text9        01B0AC
__end_of_strcmp                                text6        01B35E
__end_of_strcpy                                text62       01B4E6
__end_of_strlen                                text99       01BCA2
__end_of_strncpy                               text5        01AEBC
__end_of_temp_adc_offset                       mediumconst  00E3F3
__end_of_terminalClearScreen                   text22       01C218
__end_of_terminalSetCursorHome                 text21       01C208
__end_of_terminalTextAttributes                text4        016550
__end_of_terminalTextAttributesReset           text3        01C1E8
__end_of_terminal_ringBufferPull               text1        019D10
__end_of_updateErrorLEDs                       text16       01B604
__end_ofi1_TMR3_Reload                         text123      01C2DC
__end_ofi1_TMR3_StopTimer                      text122      01C398
__end_ofi1_TMR3_WriteTimer                     text124      01BFF2
__end_ofi1___fladd                             text144      017566
__end_ofi1___fldiv                             text143      018594
__end_ofi1___flmul                             text142      016BF8
__end_ofi1___xxtofl                            text141      0196C6
__end_ofi2_EUSART2_Write                       text181      01B7DE
__end_ofi2_TMR1_Reload                         text157      01C2F8
__end_ofi2_TMR1_StopTimer                      text149      01C3A0
__end_ofi2_TMR1_WriteTimer                     text158      01C080
__end_ofi2_TMR3_Reload                         text162      01C306
__end_ofi2_TMR3_WriteTimer                     text163      01C09C
__end_ofi2___awdiv                             text179      01AC8A
__end_ofi2___awmod                             text178      01ADEE
__end_ofi2___fladd                             text198      017874
__end_ofi2___fldiv                             text201      01881C
__end_ofi2___fleq                              text192      01AAFC
__end_ofi2___flge                              text200      01A096
__end_ofi2___flmul                             text199      016F4A
__end_ofi2___flneg                             text203      01BCD0
__end_ofi2___flsub                             text197      01B5BE
__end_ofi2___fltol                             text191      01A466
__end_ofi2___lldiv                             text190      01AD0C
__end_ofi2___llmod                             text189      01AFEE
__end_ofi2___lwdiv                             text185      01B30E
__end_ofi2___lwmod                             text184      01B820
__end_ofi2___wmul                              text188      01BE62
__end_ofi2___xxtofl                            text196      019806
__end_ofi2__div_to_l_                          text187      019E04
__end_ofi2__doprnt                             text176      012E3C
__end_ofi2__tdiv_to_l_                         text186      019B26
__end_ofi2_fround                              text183      017DE4
__end_ofi2_isdigit                             text182      01C010
__end_ofi2_printf                              text175      01BA0A
__end_ofi2_putch                               text180      01C368
__end_ofi2_scale                               text177      015E24
__initialization                               cinit        01A958
__mediumconst                                  mediumconst  00E03E
__npowers_                                     mediumconst  00E073
__pbitbssBANK0                                 bitbssBANK0  0007E0
__pbssBANK0                                    bssBANK0     0000B9
__pbssBANK1                                    bssBANK1     000161
__pbssBANK2                                    bssBANK2     0002AE
__pbssBANK3                                    bssBANK3     000300
__pbssBANK4                                    bssBANK4     000400
__pcinit                                       cinit        01A958
__pcstackBANK0                                 cstackBANK0  000060
__pcstackBANK1                                 cstackBANK1  000100
__pcstackBANK2                                 cstackBANK2  000200
__pcstackBANK3                                 cstackBANK3  0003DD
__pcstackBANK4                                 cstackBANK4  0004C0
__pcstackCOMRAM                                cstackCOMRAM 000001
__pdataBANK0                                   dataBANK0    0000FD
__pdataBANK2                                   dataBANK2    0002FF
__pdataBANK3                                   dataBANK3    0003B9
__pidataBANK0                                  idataBANK0   01C3C6
__pidataBANK2                                  idataBANK2   01C3C7
__pidataBANK3                                  idataBANK3   01BE62
__pintcode                                     intcode      000008
__pintcode_body                                intcode_body 01A096
__pintcodelo                                   intcodelo    000018
__pmediumconst                                 mediumconst  00E03E
__pnvBANK2                                     nvBANK2      0002FE
__powers_                                      mediumconst  00E03F
__ptext0                                       text0        01881C
__ptext1                                       text1        019C1C
__ptext10                                      text10       01B0AC
__ptext100                                     text100      01B6D2
__ptext101                                     text101      01B1BE
__ptext102                                     text102      01A830
__ptext103                                     text103      01AF22
__ptext104                                     text104      01B8DC
__ptext105                                     text105      01A22C
__ptext106                                     text106      01A466
__ptext107                                     text107      018D10
__ptext108                                     text108      018F48
__ptext109                                     text109      017DE4
__ptext11                                      text11       01A798
__ptext110                                     text110      01943E
__ptext111                                     text111      016550
__ptext112                                     text112      01B3FE
__ptext113                                     text113      01B604
__ptext114                                     text114      01B44E
__ptext115                                     text115      01A5B8
__ptext116                                     text116      01C340
__ptext117                                     text117      01B26A
__ptext119                                     text119      01BAE8
__ptext12                                      text12       01BBB4
__ptext120                                     text120      01BFB2
__ptext121                                     text121      01C3B4
__ptext122                                     text122      01C394
__ptext123                                     text123      01C2CE
__ptext124                                     text124      01BFD2
__ptext125                                     text125      01BD9E
__ptext126                                     text126      01C0B6
__ptext127                                     text127      01C3B6
__ptext128                                     text128      01C376
__ptext129                                     text129      01C398
__ptext13                                      text13       01C306
__ptext130                                     text130      01C2DC
__ptext131                                     text131      01C368
__ptext132                                     text132      01C37C
__ptext133                                     text133      018A9A
__ptext134                                     text134      01B716
__ptext135                                     text135      01C0D0
__ptext136                                     text136      01C31E
__ptext137                                     text137      01BB82
__ptext138                                     text138      01C0EA
__ptext139                                     text139      01B820
__ptext14                                      text14       01C010
__ptext140                                     text140      01A162
__ptext141                                     text141      019582
__ptext142                                     text142      0168A4
__ptext143                                     text143      01830A
__ptext144                                     text144      017258
__ptext146                                     text146      01BB1C
__ptext147                                     text147      01C132
__ptext148                                     text148      01C3B8
__ptext149                                     text149      01C39C
__ptext15                                      text15       01C1E8
__ptext150                                     text150      01BDC6
__ptext151                                     text151      01C3BA
__ptext152                                     text152      01A6FA
__ptext153                                     text153      01C188
__ptext154                                     text154      01BCFA
__ptext155                                     text155      01C3BC
__ptext156                                     text156      01C048
__ptext157                                     text157      01C2EA
__ptext158                                     text158      01C064
__ptext159                                     text159      01BD24
__ptext16                                      text16       01B5BE
__ptext160                                     text160      01C3BE
__ptext161                                     text161      01C19C
__ptext162                                     text162      01C2F8
__ptext163                                     text163      01C080
__ptext164                                     text164      01C3A0
__ptext165                                     text165      01C3A4
__ptext166                                     text166      01C34A
__ptext167                                     text167      01BE86
__ptext168                                     text168      01C3C0
__ptext169                                     text169      01C148
__ptext17                                      text17       01C370
__ptext170                                     text170      01C354
__ptext171                                     text171      01BEAA
__ptext172                                     text172      01C3C2
__ptext173                                     text173      01C15E
__ptext174                                     text174      01A514
__ptext175                                     text175      01B9CE
__ptext176                                     text176      011724
__ptext177                                     text177      015A0C
__ptext178                                     text178      01AD7E
__ptext179                                     text179      01AC06
__ptext18                                      text18       01BD4E
__ptext180                                     text180      01C35E
__ptext181                                     text181      01B79C
__ptext182                                     text182      01BFF2
__ptext183                                     text183      017B36
__ptext184                                     text184      01B7DE
__ptext185                                     text185      01B2BC
__ptext186                                     text186      019A28
__ptext187                                     text187      019D10
__ptext188                                     text188      01BE3C
__ptext189                                     text189      01AF88
__ptext19                                      text19       01C11C
__ptext190                                     text190      01AC8A
__ptext191                                     text191      01A3AC
__ptext192                                     text192      01AA72
__ptext193                                     text193      01BDEE
__ptext194                                     text194      01C3C4
__ptext195                                     text195      014C64
__ptext196                                     text196      0196C6
__ptext197                                     text197      01B576
__ptext198                                     text198      017566
__ptext199                                     text199      016BF8
__ptext2                                       text2        013EB6
__ptext20                                      text20       01B860
__ptext200                                     text200      019FC6
__ptext201                                     text201      018594
__ptext202                                     text202      01BA0A
__ptext203                                     text203      01BCA2
__ptext204                                     text204      01C382
__ptext205                                     text205      01C3A8
__ptext206                                     text206      01C3AC
__ptext207                                     text207      01C32A
__ptext208                                     text208      01C1B0
__ptext209                                     text209      01C3B0
__ptext21                                      text21       01C1F8
__ptext210                                     text210      01C1C4
__ptext211                                     text211      000000
__ptext22                                      text22       01C208
__ptext23                                      text23       01B91A
__ptext24                                      text24       01B164
__ptext25                                      text25       01C336
__ptext26                                      text26       01BF12
__ptext27                                      text27       01C388
__ptext28                                      text28       01C38C
__ptext29                                      text29       01C218
__ptext3                                       text3        01C1D8
__ptext30                                      text30       01BF32
__ptext31                                      text31       01C390
__ptext32                                      text32       01C226
__ptext33                                      text33       01BF52
__ptext34                                      text34       01B89E
__ptext35                                      text35       01B956
__ptext36                                      text36       01B35E
__ptext37                                      text37       01C234
__ptext38                                      text38       01BB50
__ptext39                                      text39       01C242
__ptext4                                       text4        0161CA
__ptext40                                      text40       01B3AE
__ptext41                                      text41       01C250
__ptext42                                      text42       01BCD0
__ptext43                                      text43       01C25E
__ptext44                                      text44       01C02C
__ptext45                                      text45       01A65A
__ptext46                                      text46       01C26C
__ptext47                                      text47       01C27A
__ptext48                                      text48       01C104
__ptext49                                      text49       01BF72
__ptext5                                       text5        01AE56
__ptext50                                      text50       01BA7E
__ptext51                                      text51       01C312
__ptext52                                      text52       01BA46
__ptext53                                      text53       01C288
__ptext54                                      text54       01C296
__ptext55                                      text55       01AEBC
__ptext56                                      text56       01C2A4
__ptext57                                      text57       01C2B2
__ptext58                                      text58       01BECE
__ptext59                                      text59       01AFEE
__ptext6                                       text6        01B30E
__ptext60                                      text60       01C2C0
__ptext61                                      text61       012E3C
__ptext62                                      text62       01B49E
__ptext63                                      text63       01B4E6
__ptext64                                      text64       010000
__ptext65                                      text65       0155D8
__ptext66                                      text66       01AD0C
__ptext67                                      text67       01AAFC
__ptext68                                      text68       01C174
__ptext69                                      text69       01B64A
__ptext7                                       text7        01BAB4
__ptext70                                      text70       01BEF0
__ptext71                                      text71       017874
__ptext72                                      text72       01B68E
__ptext73                                      text73       01B216
__ptext74                                      text74       019928
__ptext75                                      text75       019B26
__ptext76                                      text76       01ADEE
__ptext77                                      text77       01A2F0
__ptext78                                      text78       01B52E
__ptext79                                      text79       016F4A
__ptext8                                       text8        015E24
__ptext80                                      text80       01BBE4
__ptext81                                      text81       019EF4
__ptext82                                      text82       01A9E6
__ptext83                                      text83       01BC14
__ptext84                                      text84       019174
__ptext85                                      text85       01B108
__ptext86                                      text86       0192EE
__ptext87                                      text87       01BE16
__ptext88                                      text88       01B992
__ptext89                                      text89       019E04
__ptext9                                       text9        01B04E
__ptext90                                      text90       01BF92
__ptext91                                      text91       01B75A
__ptext92                                      text92       01C09C
__ptext93                                      text93       01A8C8
__ptext94                                      text94       01BD76
__ptext95                                      text95       01AB82
__ptext96                                      text96       01BC44
__ptext97                                      text97       018080
__ptext98                                      text98       019806
__ptext99                                      text99       01BC74
__ramtop                                       ramtop       000F00
__size_of_ADCC_ClearAccumulator                (abs)        000000
__size_of_ADCC_DefaultInterruptHandler         (abs)        000000
__size_of_ADCC_DischargeSampleCapacitor        (abs)        000000
__size_of_ADCC_GetConversionResult             (abs)        000000
__size_of_ADCC_GetCurrentCountofConversions    (abs)        000000
__size_of_ADCC_GetFilterValue                  (abs)        000000
__size_of_ADCC_HasAccumulatorOverflowed        (abs)        000000
__size_of_ADCC_Initialize                      (abs)        000000
__size_of_ADCC_SetADTIInterruptHandler         (abs)        000000
__size_of_ADCC_StartConversion                 (abs)        000000
__size_of_ADCC_StopConversion                  (abs)        000000
__size_of_ADCC_ThresholdISR                    (abs)        000000
__size_of_ADC_PostProcessingHandler            (abs)        000000
__size_of_ADC_acquisitionTimerHandler          (abs)        000000
__size_of_CCP2_CallBack                        (abs)        000000
__size_of_CCP2_CaptureISR                      (abs)        000000
__size_of_CCP2_Initialize                      (abs)        000000
__size_of_EUSART2_Initialize                   (abs)        000000
__size_of_EUSART2_Read                         (abs)        000000
__size_of_EUSART2_Receive_ISR                  (abs)        000000
__size_of_EUSART2_SetRxInterruptHandler        (abs)        000000
__size_of_EUSART2_SetTxInterruptHandler        (abs)        000000
__size_of_EUSART2_Transmit_ISR                 (abs)        000000
__size_of_EUSART2_Write                        (abs)        000000
__size_of_EXT_INT_Initialize                   (abs)        000000
__size_of_FLASH_ReadByte                       (abs)        000000
__size_of_FLASH_ReadWord                       (abs)        000000
__size_of_FVR_Initialize                       (abs)        000000
__size_of_I2C2_BusCollisionISR                 (abs)        000000
__size_of_I2C2_FunctionComplete                (abs)        000000
__size_of_I2C2_ISR                             (abs)        000000
__size_of_I2C2_Initialize                      (abs)        000000
__size_of_I2C2_MasterRead                      (abs)        000000
__size_of_I2C2_MasterReadTRBBuild              (abs)        000000
__size_of_I2C2_MasterTRBInsert                 (abs)        000000
__size_of_I2C2_MasterWrite                     (abs)        000000
__size_of_I2C2_MasterWriteTRBBuild             (abs)        000000
__size_of_I2C2_Stop                            (abs)        000000
__size_of_I2C2_WaitForLastPacketToComplete     (abs)        000000
__size_of_INT1_CallBack                        (abs)        000000
__size_of_INT1_DefaultInterruptHandler         (abs)        000000
__size_of_INT1_ISR                             (abs)        000000
__size_of_INT1_SetInterruptHandler             (abs)        000000
__size_of_INT2_CallBack                        (abs)        000000
__size_of_INT2_DefaultInterruptHandler         (abs)        000000
__size_of_INT2_ISR                             (abs)        000000
__size_of_INT2_SetInterruptHandler             (abs)        000000
__size_of_INTERRUPT_Initialize                 (abs)        000000
__size_of_INTERRUPT_InterruptManagerHigh       (abs)        000000
__size_of_INTERRUPT_InterruptManagerLow        (abs)        000000
__size_of_IOCBF2_DefaultInterruptHandler       (abs)        000000
__size_of_IOCBF2_ISR                           (abs)        000000
__size_of_IOCBF2_SetInterruptHandler           (abs)        000000
__size_of_IOCBF3_DefaultInterruptHandler       (abs)        000000
__size_of_IOCBF3_ISR                           (abs)        000000
__size_of_IOCBF3_SetInterruptHandler           (abs)        000000
__size_of_LM73AcquisitionHandler               (abs)        000000
__size_of_LM73Convert                          (abs)        000000
__size_of_LM73TempSensorInitialize             (abs)        000000
__size_of_OLED_Clear                           (abs)        000000
__size_of_OLED_Command                         (abs)        000000
__size_of_OLED_Init                            (abs)        000000
__size_of_OLED_PutChar                         (abs)        000000
__size_of_OLED_UpdateFromRAMBuffer             (abs)        000000
__size_of_OLED_WriteString                     (abs)        000000
__size_of_OLED_YX                              (abs)        000000
__size_of_OLED_updateHandler                   (abs)        000000
__size_of_OSCILLATOR_Initialize                (abs)        000000
__size_of_PIN_MANAGER_IOC                      (abs)        000000
__size_of_PIN_MANAGER_Initialize               (abs)        000000
__size_of_PMD_Initialize                       (abs)        000000
__size_of_QIChargeIOCHandler                   (abs)        000000
__size_of_QIErrorTimerHandler                  (abs)        000000
__size_of_QIIdleChargedTimerHandler            (abs)        000000
__size_of_QIIdleIOCHandler                     (abs)        000000
__size_of_SYSTEM_Initialize                    (abs)        000000
__size_of_TMR0_DefaultInterruptHandler         (abs)        000000
__size_of_TMR0_ISR                             (abs)        000000
__size_of_TMR0_Initialize                      (abs)        000000
__size_of_TMR0_SetInterruptHandler             (abs)        000000
__size_of_TMR1_DefaultInterruptHandler         (abs)        000000
__size_of_TMR1_ISR                             (abs)        000000
__size_of_TMR1_Initialize                      (abs)        000000
__size_of_TMR1_Reload                          (abs)        000000
__size_of_TMR1_SetInterruptHandler             (abs)        000000
__size_of_TMR1_StartTimer                      (abs)        000000
__size_of_TMR1_StopTimer                       (abs)        000000
__size_of_TMR1_WriteTimer                      (abs)        000000
__size_of_TMR2_DefaultInterruptHandler         (abs)        000000
__size_of_TMR2_ISR                             (abs)        000000
__size_of_TMR2_Initialize                      (abs)        000000
__size_of_TMR2_SetInterruptHandler             (abs)        000000
__size_of_TMR2_Start                           (abs)        000000
__size_of_TMR2_StartTimer                      (abs)        000000
__size_of_TMR2_Stop                            (abs)        000000
__size_of_TMR2_StopTimer                       (abs)        000000
__size_of_TMR3_DefaultInterruptHandler         (abs)        000000
__size_of_TMR3_ISR                             (abs)        000000
__size_of_TMR3_Initialize                      (abs)        000000
__size_of_TMR3_Reload                          (abs)        000000
__size_of_TMR3_SetInterruptHandler             (abs)        000000
__size_of_TMR3_StartTimer                      (abs)        000000
__size_of_TMR3_StopTimer                       (abs)        000000
__size_of_TMR3_WriteTimer                      (abs)        000000
__size_of_TMR5_Initialize                      (abs)        000000
__size_of_TMR5_StopTimer                       (abs)        000000
__size_of_TMR5_WriteTimer                      (abs)        000000
__size_of___awdiv                              (abs)        000000
__size_of___awmod                              (abs)        000000
__size_of___fladd                              (abs)        000000
__size_of___fldiv                              (abs)        000000
__size_of___fleq                               (abs)        000000
__size_of___flge                               (abs)        000000
__size_of___flmul                              (abs)        000000
__size_of___flneg                              (abs)        000000
__size_of___flsub                              (abs)        000000
__size_of___fltol                              (abs)        000000
__size_of___lldiv                              (abs)        000000
__size_of___llmod                              (abs)        000000
__size_of___lwdiv                              (abs)        000000
__size_of___lwmod                              (abs)        000000
__size_of___wmul                               (abs)        000000
__size_of___xxtofl                             (abs)        000000
__size_of__div_to_l_                           (abs)        000000
__size_of__doprnt                              (abs)        000000
__size_of__tdiv_to_l_                          (abs)        000000
__size_of_clearADCErrors                       (abs)        000000
__size_of_clearI2CErrors                       (abs)        000000
__size_of_clearUARTErrors                      (abs)        000000
__size_of_fabs                                 (abs)        000000
__size_of_freqMeasConvert                      (abs)        000000
__size_of_freqMeasStartCaptures                (abs)        000000
__size_of_fround                               (abs)        000000
__size_of_getADCError                          (abs)        000000
__size_of_getCauseOfReset                      (abs)        000000
__size_of_getCauseOfResetString                (abs)        000000
__size_of_getCauseOfResetStringSmall           (abs)        000000
__size_of_getDaysFromOnTime                    (abs)        000000
__size_of_getDeviceID                          (abs)        000000
__size_of_getDeviceIDString                    (abs)        000000
__size_of_getHoursFromOnTime                   (abs)        000000
__size_of_getI2CError                          (abs)        000000
__size_of_getMajorRevisionID                   (abs)        000000
__size_of_getMinorRevisionID                   (abs)        000000
__size_of_getMinutesFromOnTime                 (abs)        000000
__size_of_getNXQChargeStateString              (abs)        000000
__size_of_getNXQChargeStateStringCaps          (abs)        000000
__size_of_getSecondsFromOnTime                 (abs)        000000
__size_of_getStringSecondsAsTime               (abs)        000000
__size_of_getUARTError                         (abs)        000000
__size_of_getUserID                            (abs)        000000
__size_of_getYearsFromOnTime                   (abs)        000000
__size_of_heartbeatTimerHandler                (abs)        000000
__size_of_isdigit                              (abs)        000000
__size_of_leftCapTouchHandler                  (abs)        000000
__size_of_main                                 (abs)        000000
__size_of_memmove                              (abs)        000000
__size_of_printf                               (abs)        000000
__size_of_putch                                (abs)        000000
__size_of_rightCapTouchHandler                 (abs)        000000
__size_of_ringBufferLUT                        (abs)        000000
__size_of_scale                                (abs)        000000
__size_of_sprintf                              (abs)        000000
__size_of_strcat                               (abs)        000000
__size_of_strcmp                               (abs)        000000
__size_of_strcpy                               (abs)        000000
__size_of_strlen                               (abs)        000000
__size_of_strncpy                              (abs)        000000
__size_of_terminalClearScreen                  (abs)        000000
__size_of_terminalSetCursorHome                (abs)        000000
__size_of_terminalTextAttributes               (abs)        000000
__size_of_terminalTextAttributesReset          (abs)        000000
__size_of_terminal_ringBufferPull              (abs)        000000
__size_of_updateErrorLEDs                      (abs)        000000
__size_ofi1_TMR3_Reload                        (abs)        000000
__size_ofi1_TMR3_StopTimer                     (abs)        000000
__size_ofi1_TMR3_WriteTimer                    (abs)        000000
__size_ofi1___fladd                            (abs)        000000
__size_ofi1___fldiv                            (abs)        000000
__size_ofi1___flmul                            (abs)        000000
__size_ofi1___xxtofl                           (abs)        000000
__size_ofi2_EUSART2_Write                      (abs)        000000
__size_ofi2_TMR1_Reload                        (abs)        000000
__size_ofi2_TMR1_StopTimer                     (abs)        000000
__size_ofi2_TMR1_WriteTimer                    (abs)        000000
__size_ofi2_TMR3_Reload                        (abs)        000000
__size_ofi2_TMR3_WriteTimer                    (abs)        000000
__size_ofi2___awdiv                            (abs)        000000
__size_ofi2___awmod                            (abs)        000000
__size_ofi2___fladd                            (abs)        000000
__size_ofi2___fldiv                            (abs)        000000
__size_ofi2___fleq                             (abs)        000000
__size_ofi2___flge                             (abs)        000000
__size_ofi2___flmul                            (abs)        000000
__size_ofi2___flneg                            (abs)        000000
__size_ofi2___flsub                            (abs)        000000
__size_ofi2___fltol                            (abs)        000000
__size_ofi2___lldiv                            (abs)        000000
__size_ofi2___llmod                            (abs)        000000
__size_ofi2___lwdiv                            (abs)        000000
__size_ofi2___lwmod                            (abs)        000000
__size_ofi2___wmul                             (abs)        000000
__size_ofi2___xxtofl                           (abs)        000000
__size_ofi2__div_to_l_                         (abs)        000000
__size_ofi2__doprnt                            (abs)        000000
__size_ofi2__tdiv_to_l_                        (abs)        000000
__size_ofi2_fround                             (abs)        000000
__size_ofi2_isdigit                            (abs)        000000
__size_ofi2_printf                             (abs)        000000
__size_ofi2_putch                              (abs)        000000
__size_ofi2_scale                              (abs)        000000
__smallconst                                   smallconst   000000
__tdiv_to_l_                                   text74       019928
__tdiv_to_l_@cntr                              cstackBANK2  00020F
__tdiv_to_l_@exp1                              cstackBANK2  000210
__tdiv_to_l_@f1                                cstackBANK2  000200
__tdiv_to_l_@f2                                cstackBANK2  000204
__tdiv_to_l_@quot                              cstackBANK2  00020B
_adc_calculations                              bssBANK0     0000B9
_adc_result_scaling                            bssBANK0     0000CD
_adc_results                                   bssBANK0     0000DE
_clearADCErrors                                text15       01C1E8
_clearI2CErrors                                text14       01C010
_clearUARTErrors                               text13       01C306
_device_on_time                                bssBANK2     0002AE
_dpowers                                       mediumconst  00E3C7
_error_handler                                 bssBANK0     0000C5
_eusart2RxBuffer                               bssBANK3     000300
_eusart2RxCount                                bssBANK1     000197
_eusart2RxHead                                 bssBANK0     0000DD
_eusart2RxStringReady                          bitbssBANK0  0007E0
_eusart2RxTail                                 bssBANK1     000198
_eusart2TxBuffer                               bssBANK4     000480
_eusart2TxBufferRemaining                      bssBANK1     000199
_eusart2TxHead                                 bssBANK1     00019B
_eusart2TxTail                                 bssBANK1     00019A
_fabs                                          text202      01BA0A
_freqMeasConvert                               text140      01A162
_freqMeasStartCaptures                         text25       01C336
_freq_meas_results                             bssBANK1     000168
_freq_meas_start_flag                          bssBANK2     0002B9
_fround                                        text71       017874
_fround$5937                                   cstackBANK2  00022F
_fround$5938                                   cstackBANK2  00022B
_getADCError                                   text19       01C11C
_getCauseOfReset                               text24       01B164
_getCauseOfResetString                         text12       01BBB4
_getCauseOfResetStringSmall                    text96       01BC44
_getDaysFromOnTime                             text93       01A8C8
_getDeviceID                                   text90       01BF92
_getDeviceIDString                             text11       01A798
_getHoursFromOnTime                            text89       019E04
_getI2CError                                   text18       01BD4E
_getMajorRevisionID                            text88       01B992
_getMinorRevisionID                            text87       01BE16
_getMinutesFromOnTime                          text86       0192EE
_getNXQChargeStateString                       text10       01B0AC
_getNXQChargeStateStringCaps                   text85       01B108
_getSecondsFromOnTime                          text84       019174
_getStringSecondsAsTime                        text8        015E24
_getUARTError                                  text17       01C370
_getUserID                                     text7        01BAB4
_getYearsFromOnTime                            text83       01BC14
_heartbeatTimerHandler                         text152      01A6FA
_hexpowers                                     mediumconst  00E0A7
_i2c2_object                                   bssBANK1     000161
_i2c2_state                                    bssBANK0     0000DC
_i2c2_tr_queue                                 bssBANK1     0001B8
_i2c2_trb_count                                bssBANK0     0000DB
_isdigit                                       text70       01BEF0
_isdigit$5363                                  cstackBANK2  000201
_leftCapTouchHandler                           text173      01C15E
_line                                          bssBANK3     000340
_main                                          text0        01881C
_memmove                                       text106      01A466
_next_adc_channel                              dataBANK0    0000FD
_nxq_charge_state                              bssBANK1     000195
_p_i2c2_current                                bssBANK0     0000D3
_p_i2c2_trb_current                            bssBANK0     0000D5
_pos12_isns_average_buffer                     bssBANK4     000440
_pos12_isns_average_index                      bssBANK0     0000D8
_printf                                        text23       01B91A
_putch                                         text68       01C174
_putch$intlevel0                               text68       01C17A
_qi_isns_average_buffer                        bssBANK4     000400
_qi_isns_average_index                         bssBANK0     0000D7
_reset_cause                                   nvBANK2      0002FE
_rightCapTouchHandler                          text169      01C148
_ringBufferLUT                                 text2        013EB6
_scale                                         text65       0155D8
_scale$5939                                    cstackBANK2  00022B
_sprintf                                       text63       01B4E6
_strcat                                        text9        01B04E
_strcmp                                        text6        01B30E
_strcpy                                        text62       01B49E
_strlen                                        text99       01BC74
_strncpy                                       text5        01AE56
_terminalClearScreen                           text22       01C208
_terminalSetCursorHome                         text21       01C1F8
_terminalTextAttributes                        text4        0161CA
_terminalTextAttributesReset                   text3        01C1D8
_terminal_ringBufferPull                       text1        019C1C
_timer1ReloadVal                               bssBANK1     00018F
_timer3ReloadVal                               bssBANK1     000193
_timer5ReloadVal                               bssBANK1     000191
_updateErrorLEDs                               text16       01B5BE
btemp                                          temp         00005E
end_of_initialization                          cinit        01A9DC
fabs@d                                         cstackCOMRAM 000005
freqMeasConvert@qi_period                      cstackBANK1  000150
fround@prec                                    cstackBANK2  000233
ftoa@buf                                       bssBANK3     0003A8
getCauseOfReset@return_reset_cause             cstackBANK2  000200
getCauseOfResetString@r                        cstackBANK2  000202
getCauseOfResetString@strings                  dataBANK3    0003CB
getCauseOfResetStringSmall@r                   cstackBANK2  000202
getCauseOfResetStringSmall@strings             dataBANK3    0003B9
getDaysFromOnTime@days                         cstackBANK2  000215
getDaysFromOnTime@input_seconds                cstackBANK2  00020D
getDaysFromOnTime@years                        cstackBANK2  000216
getDeviceIDString@inputDevID                   cstackBANK2  00020D
getHoursFromOnTime@days                        cstackBANK2  000217
getHoursFromOnTime@hours                       cstackBANK2  000215
getHoursFromOnTime@input_seconds               cstackBANK2  00020D
getHoursFromOnTime@years                       cstackBANK2  000216
getMajorRevisionID@REVID_RAW                   cstackBANK2  00020E
getMinorRevisionID@REVID_RAW                   cstackBANK2  00020B
getMinutesFromOnTime@days                      cstackBANK2  000217
getMinutesFromOnTime@hours                     cstackBANK2  000218
getMinutesFromOnTime@input_seconds             cstackBANK2  00020D
getMinutesFromOnTime@minutes                   cstackBANK2  000215
getMinutesFromOnTime@years                     cstackBANK2  000216
getSecondsFromOnTime@days                      cstackBANK2  000217
getSecondsFromOnTime@hours                     cstackBANK2  000218
getSecondsFromOnTime@input_seconds             cstackBANK2  00020D
getSecondsFromOnTime@minutes                   cstackBANK2  000219
getSecondsFromOnTime@seconds                   cstackBANK2  000215
getSecondsFromOnTime@years                     cstackBANK2  000216
getStringSecondsAsTime@buff                    cstackBANK3  0003DD
getStringSecondsAsTime@days                    cstackBANK3  0003F4
getStringSecondsAsTime@hours                   cstackBANK3  0003F5
getStringSecondsAsTime@i                       cstackBANK3  0003F1
getStringSecondsAsTime@input_seconds           cstackBANK2  000297
getStringSecondsAsTime@minutes                 cstackBANK3  0003F6
getStringSecondsAsTime@return_string           bssBANK3     000380
getStringSecondsAsTime@seconds                 cstackBANK3  0003F2
getStringSecondsAsTime@years                   cstackBANK3  0003F3
getUserID@IDOffset                             cstackBANK2  000212
getUserID@inputUserID                          cstackBANK2  000211
getYearsFromOnTime@input_seconds               cstackBANK2  00020D
getYearsFromOnTime@years                       cstackBANK2  000211
i1TMR3_WriteTimer@timerVal                     cstackBANK1  000100
i1_TMR3_Reload                                 text123      01C2CE
i1_TMR3_StopTimer                              text122      01C394
i1_TMR3_WriteTimer                             text124      01BFD2
i1___fladd                                     text144      017258
i1___fladd@a                                   cstackBANK1  000112
i1___fladd@aexp                                cstackBANK1  00011B
i1___fladd@b                                   cstackBANK1  00010E
i1___fladd@bexp                                cstackBANK1  00011C
i1___fladd@grs                                 cstackBANK1  00011D
i1___fladd@signs                               cstackBANK1  00011A
i1___fldiv                                     text143      01830A
i1___fldiv@a                                   cstackBANK1  000122
i1___fldiv@aexp                                cstackBANK1  000136
i1___fldiv@b                                   cstackBANK1  00011E
i1___fldiv@bexp                                cstackBANK1  000135
i1___fldiv@grs                                 cstackBANK1  000131
i1___fldiv@new_exp                             cstackBANK1  00012F
i1___fldiv@rem                                 cstackBANK1  00012A
i1___fldiv@sign                                cstackBANK1  00012E
i1___flmul                                     text142      0168A4
i1___flmul@a                                   cstackBANK1  00013B
i1___flmul@aexp                                cstackBANK1  000148
i1___flmul@b                                   cstackBANK1  000137
i1___flmul@bexp                                cstackBANK1  000149
i1___flmul@grs                                 cstackBANK1  000144
i1___flmul@prod                                cstackBANK1  00014A
i1___flmul@sign                                cstackBANK1  000143
i1___flmul@temp                                cstackBANK1  00014E
i1___xxtofl                                    text141      019582
i1___xxtofl@arg                                cstackBANK1  00010A
i1___xxtofl@exp                                cstackBANK1  000109
i1___xxtofl@sign                               cstackBANK1  000108
i1___xxtofl@val                                cstackBANK1  000100
i2EUSART2_Write@txData                         cstackCOMRAM 000001
i2TMR1_WriteTimer@timerVal                     cstackCOMRAM 000001
i2TMR3_WriteTimer@timerVal                     cstackCOMRAM 000001
i2_EUSART2_Write                               text181      01B79C
i2_TMR1_Reload                                 text157      01C2EA
i2_TMR1_StopTimer                              text149      01C39C
i2_TMR1_WriteTimer                             text158      01C064
i2_TMR3_Reload                                 text162      01C2F8
i2_TMR3_WriteTimer                             text163      01C080
i2___awdiv                                     text179      01AC06
i2___awdiv@counter                             cstackCOMRAM 00000B
i2___awdiv@dividend                            cstackCOMRAM 000007
i2___awdiv@divisor                             cstackCOMRAM 000009
i2___awdiv@quotient                            cstackCOMRAM 00000D
i2___awdiv@sign                                cstackCOMRAM 00000C
i2___awmod                                     text178      01AD7E
i2___awmod@counter                             cstackCOMRAM 000005
i2___awmod@dividend                            cstackCOMRAM 000001
i2___awmod@divisor                             cstackCOMRAM 000003
i2___awmod@sign                                cstackCOMRAM 000006
i2___fladd                                     text198      017566
i2___fladd@a                                   cstackCOMRAM 000056
i2___fladd@aexp                                cstackBANK0  000061
i2___fladd@b                                   cstackCOMRAM 000052
i2___fladd@bexp                                cstackBANK0  000062
i2___fladd@grs                                 cstackBANK0  000063
i2___fladd@signs                               cstackBANK0  000060
i2___fldiv                                     text201      018594
i2___fldiv@a                                   cstackCOMRAM 000017
i2___fldiv@aexp                                cstackCOMRAM 00002B
i2___fldiv@b                                   cstackCOMRAM 000013
i2___fldiv@bexp                                cstackCOMRAM 00002A
i2___fldiv@grs                                 cstackCOMRAM 000026
i2___fldiv@new_exp                             cstackCOMRAM 000024
i2___fldiv@rem                                 cstackCOMRAM 00001F
i2___fldiv@sign                                cstackCOMRAM 000023
i2___fleq                                      text192      01AA72
i2___fleq@ff1                                  cstackCOMRAM 000001
i2___fleq@ff2                                  cstackCOMRAM 000005
i2___flge                                      text200      019FC6
i2___flge@ff1                                  cstackCOMRAM 000001
i2___flge@ff2                                  cstackCOMRAM 000005
i2___flmul                                     text199      016BF8
i2___flmul@a                                   cstackCOMRAM 000030
i2___flmul@aexp                                cstackCOMRAM 000039
i2___flmul@b                                   cstackCOMRAM 00002C
i2___flmul@bexp                                cstackCOMRAM 00003E
i2___flmul@grs                                 cstackCOMRAM 00003A
i2___flmul@prod                                cstackCOMRAM 00003F
i2___flmul@sign                                cstackCOMRAM 000038
i2___flmul@temp                                cstackCOMRAM 000043
i2___flneg                                     text203      01BCA2
i2___flneg@f1                                  cstackCOMRAM 000001
i2___flsub                                     text197      01B576
i2___flsub@a                                   cstackBANK0  000068
i2___flsub@b                                   cstackBANK0  000064
i2___fltol                                     text191      01A3AC
i2___fltol@exp1                                cstackCOMRAM 000057
i2___fltol@f1                                  cstackCOMRAM 00004E
i2___fltol@sign1                               cstackCOMRAM 000056
i2___lldiv                                     text190      01AC8A
i2___lldiv@counter                             cstackCOMRAM 00000D
i2___lldiv@dividend                            cstackCOMRAM 000001
i2___lldiv@divisor                             cstackCOMRAM 000005
i2___lldiv@quotient                            cstackCOMRAM 000009
i2___llmod                                     text189      01AF88
i2___llmod@counter                             cstackCOMRAM 000016
i2___llmod@dividend                            cstackCOMRAM 00000E
i2___llmod@divisor                             cstackCOMRAM 000012
i2___lwdiv                                     text185      01B2BC
i2___lwdiv@counter                             cstackCOMRAM 00000A
i2___lwdiv@dividend                            cstackCOMRAM 000006
i2___lwdiv@divisor                             cstackCOMRAM 000008
i2___lwdiv@quotient                            cstackCOMRAM 00000B
i2___lwmod                                     text184      01B7DE
i2___lwmod@counter                             cstackCOMRAM 000005
i2___lwmod@dividend                            cstackCOMRAM 000001
i2___lwmod@divisor                             cstackCOMRAM 000003
i2___wmul                                      text188      01BE3C
i2___wmul@multiplicand                         cstackCOMRAM 000003
i2___wmul@multiplier                           cstackCOMRAM 000001
i2___wmul@product                              cstackCOMRAM 000005
i2___xxtofl                                    text196      0196C6
i2___xxtofl@arg                                cstackCOMRAM 00000F
i2___xxtofl@exp                                cstackCOMRAM 00000E
i2___xxtofl@sign                               cstackCOMRAM 00000D
i2___xxtofl@val                                cstackCOMRAM 000005
i2__div_to_l_                                  text187      019D10
i2__div_to_l_@cntr                             cstackCOMRAM 00000D
i2__div_to_l_@exp1                             cstackCOMRAM 00000E
i2__div_to_l_@f1                               cstackCOMRAM 000001
i2__div_to_l_@f2                               cstackCOMRAM 000005
i2__div_to_l_@quot                             cstackCOMRAM 000009
i2__doprnt                                     text176      011724
i2__doprnt$4891                                cstackBANK0  00007B
i2__doprnt$4892                                cstackBANK0  00007D
i2__doprnt$4893                                cstackBANK0  00007F
i2__doprnt$4894                                cstackBANK0  000081
i2__doprnt$4895                                cstackBANK0  000083
i2__doprnt$4896                                cstackBANK0  000085
i2__doprnt$4897                                cstackBANK0  000087
i2__doprnt$4898                                cstackBANK0  000089
i2__doprnt$6326                                cstackBANK0  000076
i2__doprnt@ap                                  cstackBANK0  000070
i2__doprnt@c                                   cstackBANK0  0000A3
i2__doprnt@cp                                  cstackBANK0  00008B
i2__doprnt@eexp                                cstackBANK0  00008F
i2__doprnt@f                                   cstackBANK0  00006E
i2__doprnt@flag                                cstackBANK0  0000A1
i2__doprnt@fval                                cstackBANK0  000095
i2__doprnt@idx                                 cstackBANK0  00007A
i2__doprnt@len                                 cstackBANK0  00008D
i2__doprnt@pb                                  cstackBANK0  00006C
i2__doprnt@prec                                cstackBANK0  00009F
i2__doprnt@tmpval                              cstackBANK0  000091
i2__doprnt@val                                 cstackBANK0  000099
i2__doprnt@width                               cstackBANK0  00009D
i2__tdiv_to_l_                                 text186      019A28
i2__tdiv_to_l_@cntr                            cstackCOMRAM 000010
i2__tdiv_to_l_@exp1                            cstackCOMRAM 000011
i2__tdiv_to_l_@f1                              cstackCOMRAM 000001
i2__tdiv_to_l_@f2                              cstackCOMRAM 000005
i2__tdiv_to_l_@quot                            cstackCOMRAM 00000C
i2_fround                                      text183      017B36
i2_fround$6323                                 cstackCOMRAM 00004D
i2_fround$6324                                 cstackCOMRAM 000049
i2_isdigit                                     text182      01BFF2
i2_isdigit$5363                                cstackCOMRAM 000002
i2_printf                                      text175      01B9CE
i2_putch                                       text180      01C35E
i2_scale                                       text177      015A0C
i2_scale$6325                                  cstackCOMRAM 000049
i2fround@prec                                  cstackCOMRAM 000051
i2isdigit@c                                    cstackCOMRAM 000003
i2printf@ap                                    cstackBANK0  0000A6
i2printf@f                                     cstackBANK0  0000A4
i2printf@pb                                    cstackBANK0  0000A8
i2putch@txData                                 cstackCOMRAM 000002
i2scale@scl                                    cstackCOMRAM 00004D
int$flags                                      temp         00005E
int_func                                       intcode_body 01A096
intlevel0                                      text         000000
intlevel1                                      text         000000
intlevel2                                      text         000000
intlevel3                                      text         000000
isdigit@c                                      cstackBANK2  000202
memmove@d                                      cstackBANK2  000208
memmove@d1                                     cstackBANK2  000200
memmove@n                                      cstackBANK2  000204
memmove@s                                      cstackBANK2  00020A
memmove@s1                                     cstackBANK2  000202
printf@ap                                      cstackBANK2  0002A7
printf@f                                       cstackBANK2  00029F
printf@pb                                      cstackBANK2  0002A9
putch@txData                                   cstackBANK2  000201
ringBufferLUT@line                             cstackBANK3  0003F9
ringBufferLUT@userID                           cstackBANK3  0003FD
scale@scl                                      cstackBANK2  00022F
sprintf@ap                                     cstackBANK2  000290
sprintf@f                                      cstackBANK2  000286
sprintf@pb                                     cstackBANK2  000292
sprintf@wh                                     cstackBANK2  000284
stackhi                                        (abs)        000E87
stacklo                                        (abs)        0004DA
start                                          init         0000C2
start_initialization                           cinit        01A958
strcat@cp                                      cstackBANK2  000204
strcat@from                                    cstackBANK2  000202
strcat@to                                      cstackBANK2  000200
strcmp@r                                       cstackBANK2  000206
strcmp@s1                                      cstackBANK2  000200
strcmp@s2                                      cstackBANK2  000202
strcpy@cp                                      cstackBANK2  000207
strcpy@from                                    cstackBANK2  000205
strcpy@to                                      cstackBANK2  000203
strlen@cp                                      cstackBANK2  000202
strlen@s                                       cstackBANK2  000200
strncpy@cp                                     cstackBANK2  000206
strncpy@from                                   cstackBANK2  000202
strncpy@size                                   cstackBANK2  000204
strncpy@to                                     cstackBANK2  000200
terminalTextAttributes@background_color        cstackBANK3  0003F7
terminalTextAttributes@foreground_color        cstackBANK4  0004C0
terminalTextAttributes@i                       cstackBANK4  0004D1
terminalTextAttributes@input_attribute         cstackBANK3  0003F8
terminalTextAttributes@print_string            cstackBANK4  0004C1
terminal_ringBufferPull@charNumber             cstackBANK4  0004D2
terminal_ringBufferPull@index                  cstackBANK4  0004D6
terminal_ringBufferPull@index_4470             cstackBANK4  0004D4
ttemp5                                         temp         00005F
ttemp6                                         temp         000062
ttemp7                                         temp         000066
wtemp8                                         temp         00005F


FUNCTION INFORMATION:

 *************** function _main *****************
 Defined at:
		line 76 in file "main.c"
 Parameters:    Size  Location     Type
		None
 Auto vars:     Size  Location     Type
		None
 Return value:  Size  Location     Type
                  1    wreg      void 
 Registers used:
		wreg, fsr0l, fsr0h, fsr2l, fsr2h, status,2, status,0, pclath, tosl, tblptrl, tblptrh, tblptru, prodl, prodh, cstack
 Tracked objects:
		On entry : 
		On exit  : 
		Unchanged: 
 Data sizes:     COMRAM   BANK0   BANK1   BANK2   BANK3   BANK4   BANK5   BANK6   BANK7   BANK8   BANK9  BANK10  BANK11  BANK12  BANK13  BANK14
      Params:         0       0       0       0       0       0       0       0       0       0       0       0       0       0       0       0
      Locals:         0       0       0       0       0       0       0       0       0       0       0       0       0       0       0       0
      Temps:          0       0       0       0       0       2       0       0       0       0       0       0       0       0       0       0
      Totals:         0       0       0       0       0       2       0       0       0       0       0       0       0       0       0       0
Total ram usage:        2 bytes
 Hardware stack levels required when called:   18
 This function calls:
		_ADCC_SetADTIInterruptHandler
		_INT1_SetInterruptHandler
		_INT2_SetInterruptHandler
		_IOCBF2_SetInterruptHandler
		_IOCBF3_SetInterruptHandler
		_LM73AcquisitionHandler
		_LM73TempSensorInitialize
		_OLED_Clear
		_OLED_Init
		_OLED_updateHandler
		_SYSTEM_Initialize
		_TMR0_SetInterruptHandler
		_TMR1_Reload
		_TMR1_SetInterruptHandler
		_TMR1_StopTimer
		_TMR2_SetInterruptHandler
		_TMR3_Reload
		_TMR3_SetInterruptHandler
		_TMR3_StopTimer
		_TMR5_StopTimer
		_TMR5_WriteTimer
		_freqMeasStartCaptures
		_getCauseOfReset
		_getCauseOfResetString
		_printf
		_terminalClearScreen
		_terminalSetCursorHome
		_terminalTextAttributes
		_terminalTextAttributesReset
		_terminal_ringBufferPull
		_updateErrorLEDs
 This function is called by:
		Startup code after reset
 This function uses a non-reentrant model


 *************** function _terminal_ringBufferPull *****************
 Defined at:
		line 6 in file "ring_buffer_interface.c"
 Parameters:    Size  Location     Type
		None
 Auto vars:     Size  Location     Type
  index           2   20[BANK4 ] int 
  index           2   22[BANK4 ] int 
  charNumber      2   18[BANK4 ] int 
 Return value:  Size  Location     Type
                  1    wreg      void 
 Registers used:
		wreg, fsr0l, fsr0h, fsr2l, fsr2h, status,2, status,0, pclath, tosl, tblptrl, tblptrh, tblptru, prodl, prodh, cstack
 Tracked objects:
		On entry : 
		On exit  : 
		Unchanged: 
 Data sizes:     COMRAM   BANK0   BANK1   BANK2   BANK3   BANK4   BANK5   BANK6   BANK7   BANK8   BANK9  BANK10  BANK11  BANK12  BANK13  BANK14
      Params:         0       0       0       0       0       0       0       0       0       0       0       0       0       0       0       0
      Locals:         0       0       0       0       0       6       0       0       0       0       0       0       0       0       0       0
      Temps:          0       0       0       0       1       0       0       0       0       0       0       0       0       0       0       0
      Totals:         0       0       0       0       1       6       0       0       0       0       0       0       0       0       0       0
Total ram usage:        7 bytes
 Hardware stack levels used:    1
 Hardware stack levels required when called:   17
 This function calls:
		_EUSART2_Read
		_ringBufferLUT
		_strlen
 This function is called by:
		_main
 This function uses a non-reentrant model


 *************** function _ringBufferLUT *****************
 Defined at:
		line 18 in file "ring_buffer_LUT.c"
 Parameters:    Size  Location     Type
  line            2   28[BANK3 ] PTR unsigned char 
		 -> line(64), 
 Auto vars:     Size  Location     Type
  userID          2   32[BANK3 ] int 
 Return value:  Size  Location     Type
                  1    wreg      void 
 Registers used:
		wreg, fsr0l, fsr0h, fsr2l, fsr2h, status,2, status,0, pclath, tosl, tblptrl, tblptrh, tblptru, prodl, prodh, cstack
 Tracked objects:
		On entry : 
		On exit  : 
		Unchanged: 
 Data sizes:     COMRAM   BANK0   BANK1   BANK2   BANK3   BANK4   BANK5   BANK6   BANK7   BANK8   BANK9  BANK10  BANK11  BANK12  BANK13  BANK14
      Params:         0       0       0       0       2       0       0       0       0       0       0       0       0       0       0       0
      Locals:         0       0       0       0       2       0       0       0       0       0       0       0       0       0       0       0
      Temps:          0       0       0       0       2       0       0       0       0       0       0       0       0       0       0       0
      Totals:         0       0       0       0       6       0       0       0       0       0       0       0       0       0       0       0
Total ram usage:        6 bytes
 Hardware stack levels used:    1
 Hardware stack levels required when called:   16
 This function calls:
		___fldiv
		_clearADCErrors
		_clearI2CErrors
		_clearUARTErrors
		_getADCError
		_getCauseOfResetString
		_getDeviceID
		_getDeviceIDString
		_getI2CError
		_getMajorRevisionID
		_getMinorRevisionID
		_getNXQChargeStateString
		_getStringSecondsAsTime
		_getUARTError
		_getUserID
		_printf
		_strcmp
		_strlen
		_terminalTextAttributes
		_terminalTextAttributesReset
 This function is called by:
		_terminal_ringBufferPull
 This function uses a non-reentrant model


 *************** function _terminalTextAttributesReset *****************
 Defined at:
		line 164 in file "terminal_control.c"
 Parameters:    Size  Location     Type
		None
 Auto vars:     Size  Location     Type
		None
 Return value:  Size  Location     Type
                  1    wreg      void 
 Registers used:
		wreg, fsr0l, fsr0h, fsr2l, fsr2h, status,2, status,0, pclath, tosl, tblptrl, tblptrh, tblptru, prodl, prodh, cstack
 Tracked objects:
		On entry : 
		On exit  : 
		Unchanged: 
 Data sizes:     COMRAM   BANK0   BANK1   BANK2   BANK3   BANK4   BANK5   BANK6   BANK7   BANK8   BANK9  BANK10  BANK11  BANK12  BANK13  BANK14
      Params:         0       0       0       0       0       0       0       0       0       0       0       0       0       0       0       0
      Locals:         0       0       0       0       0       0       0       0       0       0       0       0       0       0       0       0
      Temps:          0       0       0       0       0       0       0       0       0       0       0       0       0       0       0       0
      Totals:         0       0       0       0       0       0       0       0       0       0       0       0       0       0       0       0
Total ram usage:        0 bytes
 Hardware stack levels used:    1
 Hardware stack levels required when called:   15
 This function calls:
		_printf
 This function is called by:
		_main
		_ringBufferLUT
		_terminalPrintTestMessage
 This function uses a non-reentrant model


 *************** function _terminalTextAttributes *****************
 Defined at:
		line 47 in file "terminal_control.c"
 Parameters:    Size  Location     Type
  foreground_c    1    wreg     enum E9584
  background_c    1   26[BANK3 ] enum E9584
  input_attrib    1   27[BANK3 ] enum E9576
 Auto vars:     Size  Location     Type
  foreground_c    1    0[BANK4 ] enum E9584
  print_string   16    1[BANK4 ] unsigned char [16]
  i               1   17[BANK4 ] unsigned char 
 Return value:  Size  Location     Type
                  1    wreg      void 
 Registers used:
		wreg, fsr0l, fsr0h, fsr2l, fsr2h, status,2, status,0, pclath, tosl, tblptrl, tblptrh, tblptru, prodl, prodh, cstack
 Tracked objects:
		On entry : 
		On exit  : 
		Unchanged: 
 Data sizes:     COMRAM   BANK0   BANK1   BANK2   BANK3   BANK4   BANK5   BANK6   BANK7   BANK8   BANK9  BANK10  BANK11  BANK12  BANK13  BANK14
      Params:         0       0       0       0       2       0       0       0       0       0       0       0       0       0       0       0
      Locals:         0       0       0       0       0      18       0       0       0       0       0       0       0       0       0       0
      Temps:          0       0       0       0       0       0       0       0       0       0       0       0       0       0       0       0
      Totals:         0       0       0       0       2      18       0       0       0       0       0       0       0       0       0       0
Total ram usage:       20 bytes
 Hardware stack levels used:    1
 Hardware stack levels required when called:   15
 This function calls:
		_printf
		_strcat
		_strncpy
 This function is called by:
		_main
		_ringBufferLUT
		_terminalPrintTestMessage
 This function uses a non-reentrant model


 *************** function _strncpy *****************
 Defined at:
		line 8 in file "C:\Program Files (x86)\Microchip\xc8\v2.05\pic\sources\c90\common\strncpy.c"
 Parameters:    Size  Location     Type
  to              2    0[BANK2 ] PTR unsigned char 
		 -> terminalTextAttributes@print_string(16), 
  from            2    2[BANK2 ] PTR const unsigned char 
		 -> STR_278(3), 
  size            2    4[BANK2 ] unsigned int 
 Auto vars:     Size  Location     Type
  cp              2    6[BANK2 ] PTR unsigned char 
		 -> terminalTextAttributes@print_string(16), 
 Return value:  Size  Location     Type
                  2    0[BANK2 ] PTR unsigned char 
 Registers used:
		wreg, fsr2l, fsr2h, status,2, status,0, tblptrl, tblptrh, tblptru
 Tracked objects:
		On entry : 
		On exit  : 
		Unchanged: 
 Data sizes:     COMRAM   BANK0   BANK1   BANK2   BANK3   BANK4   BANK5   BANK6   BANK7   BANK8   BANK9  BANK10  BANK11  BANK12  BANK13  BANK14
      Params:         0       0       0       6       0       0       0       0       0       0       0       0       0       0       0       0
      Locals:         0       0       0       2       0       0       0       0       0       0       0       0       0       0       0       0
      Temps:          0       0       0       0       0       0       0       0       0       0       0       0       0       0       0       0
      Totals:         0       0       0       8       0       0       0       0       0       0       0       0       0       0       0       0
Total ram usage:        8 bytes
 Hardware stack levels used:    1
 Hardware stack levels required when called:   11
 This function calls:
		Nothing
 This function is called by:
		_terminalTextAttributes
 This function uses a non-reentrant model


 *************** function _strcmp *****************
 Defined at:
		line 33 in file "C:\Program Files (x86)\Microchip\xc8\v2.05\pic\sources\c90\common\strcmp.c"
 Parameters:    Size  Location     Type
  s1              2    0[BANK2 ] PTR const unsigned char 
		 -> line(64), 
  s2              2    2[BANK2 ] PTR const unsigned char 
		 -> STR_262(5), STR_259(16), STR_255(15), STR_252(16), 
		 -> STR_249(18), STR_247(22), STR_245(19), STR_243(17), 
		 -> STR_241(20), STR_239(22), STR_237(21), STR_235(14), 
		 -> STR_233(13), STR_231(20), STR_229(23), STR_227(18), 
		 -> STR_225(15), STR_223(14), STR_205(14), STR_203(18), 
		 -> STR_201(17), STR_199(17), STR_197(11), STR_195(10), 
		 -> STR_193(16), STR_190(10), STR_188(13), STR_186(11), 
		 -> STR_184(6), STR_182(16), STR_179(6), STR_176(6), 
 Auto vars:     Size  Location     Type
  r               1    6[BANK2 ] char 
 Return value:  Size  Location     Type
                  2    0[BANK2 ] int 
 Registers used:
		wreg, fsr2l, fsr2h, status,2, status,0, tblptrl, tblptrh, tblptru
 Tracked objects:
		On entry : 
		On exit  : 
		Unchanged: 
 Data sizes:     COMRAM   BANK0   BANK1   BANK2   BANK3   BANK4   BANK5   BANK6   BANK7   BANK8   BANK9  BANK10  BANK11  BANK12  BANK13  BANK14
      Params:         0       0       0       4       0       0       0       0       0       0       0       0       0       0       0       0
      Locals:         0       0       0       1       0       0       0       0       0       0       0       0       0       0       0       0
      Temps:          0       0       0       2       0       0       0       0       0       0       0       0       0       0       0       0
      Totals:         0       0       0       7       0       0       0       0       0       0       0       0       0       0       0       0
Total ram usage:        7 bytes
 Hardware stack levels used:    1
 Hardware stack levels required when called:   11
 This function calls:
		Nothing
 This function is called by:
		_ringBufferLUT
 This function uses a non-reentrant model


 *************** function _getUserID *****************
 Defined at:
		line 72 in file "device_IDs.c"
 Parameters:    Size  Location     Type
  inputUserID     1    wreg     unsigned char 
 Auto vars:     Size  Location     Type
  inputUserID     1   17[BANK2 ] unsigned char 
  initialOffse    4    0        unsigned long 
  IDOffset        1   18[BANK2 ] unsigned char 
 Return value:  Size  Location     Type
                  2   11[BANK2 ] unsigned int 
 Registers used:
		wreg, status,2, status,0, prodl, prodh, cstack
 Tracked objects:
		On entry : 
		On exit  : 
		Unchanged: 
 Data sizes:     COMRAM   BANK0   BANK1   BANK2   BANK3   BANK4   BANK5   BANK6   BANK7   BANK8   BANK9  BANK10  BANK11  BANK12  BANK13  BANK14
      Params:         0       0       0       2       0       0       0       0       0       0       0       0       0       0       0       0
      Locals:         0       0       0       6       0       0       0       0       0       0       0       0       0       0       0       0
      Temps:          0       0       0       0       0       0       0       0       0       0       0       0       0       0       0       0
      Totals:         0       0       0       8       0       0       0       0       0       0       0       0       0       0       0       0
Total ram usage:        8 bytes
 Hardware stack levels used:    1
 Hardware stack levels required when called:   13
 This function calls:
		_FLASH_ReadWord
 This function is called by:
		_ringBufferLUT
 This function uses a non-reentrant model


 *************** function _getStringSecondsAsTime *****************
 Defined at:
		line 46 in file "heartbeat_timer.c"
 Parameters:    Size  Location     Type
  input_second    4  151[BANK2 ] unsigned long 
 Auto vars:     Size  Location     Type
  buff           20    0[BANK3 ] unsigned char [20]
  minutes         1   25[BANK3 ] unsigned char 
  hours           1   24[BANK3 ] unsigned char 
  days            1   23[BANK3 ] unsigned char 
  years           1   22[BANK3 ] unsigned char 
  seconds         1   21[BANK3 ] unsigned char 
  i               1   20[BANK3 ] unsigned char 
  remainder       1    0        unsigned char 
 Return value:  Size  Location     Type
                  2  151[BANK2 ] PTR unsigned char 
 Registers used:
		wreg, fsr0l, fsr0h, fsr2l, fsr2h, status,2, status,0, pclath, tosl, tblptrl, tblptrh, tblptru, prodl, prodh, cstack
 Tracked objects:
		On entry : 
		On exit  : 
		Unchanged: 
 Data sizes:     COMRAM   BANK0   BANK1   BANK2   BANK3   BANK4   BANK5   BANK6   BANK7   BANK8   BANK9  BANK10  BANK11  BANK12  BANK13  BANK14
      Params:         0       0       0       4       0       0       0       0       0       0       0       0       0       0       0       0
      Locals:         0       0       0       0      26       0       0       0       0       0       0       0       0       0       0       0
      Temps:          0       0       0       4       0       0       0       0       0       0       0       0       0       0       0       0
      Totals:         0       0       0       8      26       0       0       0       0       0       0       0       0       0       0       0
Total ram usage:       34 bytes
 Hardware stack levels used:    1
 Hardware stack levels required when called:   15
 This function calls:
		___lldiv
		___wmul
		_sprintf
		_strcat
		_strlen
 This function is called by:
		_ringBufferLUT
 This function uses a non-reentrant model


 *************** function _strcat *****************
 Defined at:
		line 8 in file "C:\Program Files (x86)\Microchip\xc8\v2.05\pic\sources\c90\common\strcat.c"
 Parameters:    Size  Location     Type
  to              2    0[BANK2 ] PTR unsigned char 
		 -> terminalTextAttributes@print_string(16), getStringSecondsAsTime@return_string(40), 
  from            2    2[BANK2 ] PTR const unsigned char 
		 -> STR_306(2), STR_305(3), STR_304(3), STR_303(3), 
		 -> STR_302(3), STR_301(3), STR_300(3), STR_299(3), 
		 -> STR_298(3), STR_297(3), STR_296(2), STR_295(3), 
		 -> STR_294(3), STR_293(3), STR_292(3), STR_291(3), 
		 -> STR_290(3), STR_289(3), STR_288(3), STR_287(3), 
		 -> STR_286(2), STR_285(2), STR_284(2), STR_283(2), 
		 -> STR_282(2), STR_281(2), STR_280(2), STR_279(2), 
		 -> getStringSecondsAsTime@buff(20), 
 Auto vars:     Size  Location     Type
  cp              2    4[BANK2 ] PTR unsigned char 
		 -> terminalTextAttributes@print_string(16), getStringSecondsAsTime@return_string(40), 
 Return value:  Size  Location     Type
                  2    0[BANK2 ] PTR unsigned char 
 Registers used:
		wreg, fsr0l, fsr0h, fsr2l, fsr2h, status,2, status,0, tblptrl, tblptrh, tblptru
 Tracked objects:
		On entry : 
		On exit  : 
		Unchanged: 
 Data sizes:     COMRAM   BANK0   BANK1   BANK2   BANK3   BANK4   BANK5   BANK6   BANK7   BANK8   BANK9  BANK10  BANK11  BANK12  BANK13  BANK14
      Params:         0       0       0       4       0       0       0       0       0       0       0       0       0       0       0       0
      Locals:         0       0       0       2       0       0       0       0       0       0       0       0       0       0       0       0
      Temps:          0       0       0       0       0       0       0       0       0       0       0       0       0       0       0       0
      Totals:         0       0       0       6       0       0       0       0       0       0       0       0       0       0       0       0
Total ram usage:        6 bytes
 Hardware stack levels used:    1
 Hardware stack levels required when called:   11
 This function calls:
		Nothing
 This function is called by:
		_getStringSecondsAsTime
		_terminalTextAttributes
 This function uses a non-reentrant model


 *************** function _getNXQChargeStateString *****************
 Defined at:
		line 9 in file "NXQ_charge_state.c"
 Parameters:    Size  Location     Type
		None
 Auto vars:     Size  Location     Type
		None
 Return value:  Size  Location     Type
                  2    0[BANK2 ] PTR unsigned char 
 Registers used:
		wreg, status,2, status,0
 Tracked objects:
		On entry : 
		On exit  : 
		Unchanged: 
 Data sizes:     COMRAM   BANK0   BANK1   BANK2   BANK3   BANK4   BANK5   BANK6   BANK7   BANK8   BANK9  BANK10  BANK11  BANK12  BANK13  BANK14
      Params:         0       0       0       2       0       0       0       0       0       0       0       0       0       0       0       0
      Locals:         0       0       0       0       0       0       0       0       0       0       0       0       0       0       0       0
      Temps:          0       0       0       0       0       0       0       0       0       0       0       0       0       0       0       0
      Totals:         0       0       0       2       0       0       0       0       0       0       0       0       0       0       0       0
Total ram usage:        2 bytes
 Hardware stack levels used:    1
 Hardware stack levels required when called:   11
 This function calls:
		Nothing
 This function is called by:
		_ringBufferLUT
 This function uses a non-reentrant model


 *************** function _getDeviceIDString *****************
 Defined at:
		line 34 in file "device_IDs.c"
 Parameters:    Size  Location     Type
  inputDevID      2   13[BANK2 ] unsigned int 
 Auto vars:     Size  Location     Type
		None
 Return value:  Size  Location     Type
                  2   13[BANK2 ] PTR inline unsigned char
 Registers used:
		wreg, status,2, status,0
 Tracked objects:
		On entry : 
		On exit  : 
		Unchanged: 
 Data sizes:     COMRAM   BANK0   BANK1   BANK2   BANK3   BANK4   BANK5   BANK6   BANK7   BANK8   BANK9  BANK10  BANK11  BANK12  BANK13  BANK14
      Params:         0       0       0       2       0       0       0       0       0       0       0       0       0       0       0       0
      Locals:         0       0       0       0       0       0       0       0       0       0       0       0       0       0       0       0
      Temps:          0       0       0       2       0       0       0       0       0       0       0       0       0       0       0       0
      Totals:         0       0       0       4       0       0       0       0       0       0       0       0       0       0       0       0
Total ram usage:        4 bytes
 Hardware stack levels used:    1
 Hardware stack levels required when called:   11
 This function calls:
		Nothing
 This function is called by:
		_ringBufferLUT
 This function uses a non-reentrant model


 *************** function _getCauseOfResetString *****************
 Defined at:
		line 87 in file "cause_of_reset.c"
 Parameters:    Size  Location     Type
  r               1    wreg     enum E9577
 Auto vars:     Size  Location     Type
  r               1    2[BANK2 ] enum E9577
 Return value:  Size  Location     Type
                  2    0[BANK2 ] PTR inline unsigned char
 Registers used:
		wreg, fsr2l, fsr2h, status,2, status,0, prodl, prodh
 Tracked objects:
		On entry : 
		On exit  : 
		Unchanged: 
 Data sizes:     COMRAM   BANK0   BANK1   BANK2   BANK3   BANK4   BANK5   BANK6   BANK7   BANK8   BANK9  BANK10  BANK11  BANK12  BANK13  BANK14
      Params:         0       0       0       2       0       0       0       0       0       0       0       0       0       0       0       0
      Locals:         0       0       0       1       0       0       0       0       0       0       0       0       0       0       0       0
      Temps:          0       0       0       0       0       0       0       0       0       0       0       0       0       0       0       0
      Totals:         0       0       0       3       0       0       0       0       0       0       0       0       0       0       0       0
Total ram usage:        3 bytes
 Hardware stack levels used:    1
 Hardware stack levels required when called:   11
 This function calls:
		Nothing
 This function is called by:
		_main
		_ringBufferLUT
 This function uses a non-reentrant model


 *************** function _clearUARTErrors *****************
 Defined at:
		line 85 in file "error_handling.c"
 Parameters:    Size  Location     Type
		None
 Auto vars:     Size  Location     Type
		None
 Return value:  Size  Location     Type
                  1    wreg      void 
 Registers used:
		wreg, status,2, status,0, cstack
 Tracked objects:
		On entry : 
		On exit  : 
		Unchanged: 
 Data sizes:     COMRAM   BANK0   BANK1   BANK2   BANK3   BANK4   BANK5   BANK6   BANK7   BANK8   BANK9  BANK10  BANK11  BANK12  BANK13  BANK14
      Params:         0       0       0       0       0       0       0       0       0       0       0       0       0       0       0       0
      Locals:         0       0       0       0       0       0       0       0       0       0       0       0       0       0       0       0
      Temps:          0       0       0       0       0       0       0       0       0       0       0       0       0       0       0       0
      Totals:         0       0       0       0       0       0       0       0       0       0       0       0       0       0       0       0
Total ram usage:        0 bytes
 Hardware stack levels used:    1
 Hardware stack levels required when called:   13
 This function calls:
		_updateErrorLEDs
 This function is called by:
		_ringBufferLUT
 This function uses a non-reentrant model


 *************** function _clearI2CErrors *****************
 Defined at:
		line 95 in file "error_handling.c"
 Parameters:    Size  Location     Type
		None
 Auto vars:     Size  Location     Type
		None
 Return value:  Size  Location     Type
                  1    wreg      void 
 Registers used:
		wreg, status,2, status,0, cstack
 Tracked objects:
		On entry : 
		On exit  : 
		Unchanged: 
 Data sizes:     COMRAM   BANK0   BANK1   BANK2   BANK3   BANK4   BANK5   BANK6   BANK7   BANK8   BANK9  BANK10  BANK11  BANK12  BANK13  BANK14
      Params:         0       0       0       0       0       0       0       0       0       0       0       0       0       0       0       0
      Locals:         0       0       0       0       0       0       0       0       0       0       0       0       0       0       0       0
      Temps:          0       0       0       0       0       0       0       0       0       0       0       0       0       0       0       0
      Totals:         0       0       0       0       0       0       0       0       0       0       0       0       0       0       0       0
Total ram usage:        0 bytes
 Hardware stack levels used:    1
 Hardware stack levels required when called:   13
 This function calls:
		_updateErrorLEDs
 This function is called by:
		_ringBufferLUT
 This function uses a non-reentrant model


 *************** function _clearADCErrors *****************
 Defined at:
		line 74 in file "error_handling.c"
 Parameters:    Size  Location     Type
		None
 Auto vars:     Size  Location     Type
		None
 Return value:  Size  Location     Type
                  1    wreg      void 
 Registers used:
		wreg, status,2, status,0, cstack
 Tracked objects:
		On entry : 
		On exit  : 
		Unchanged: 
 Data sizes:     COMRAM   BANK0   BANK1   BANK2   BANK3   BANK4   BANK5   BANK6   BANK7   BANK8   BANK9  BANK10  BANK11  BANK12  BANK13  BANK14
      Params:         0       0       0       0       0       0       0       0       0       0       0       0       0       0       0       0
      Locals:         0       0       0       0       0       0       0       0       0       0       0       0       0       0       0       0
      Temps:          0       0       0       0       0       0       0       0       0       0       0       0       0       0       0       0
      Totals:         0       0       0       0       0       0       0       0       0       0       0       0       0       0       0       0
Total ram usage:        0 bytes
 Hardware stack levels used:    1
 Hardware stack levels required when called:   13
 This function calls:
		_updateErrorLEDs
 This function is called by:
		_ringBufferLUT
 This function uses a non-reentrant model


 *************** function _updateErrorLEDs *****************
 Defined at:
		line 60 in file "error_handling.c"
 Parameters:    Size  Location     Type
		None
 Auto vars:     Size  Location     Type
		None
 Return value:  Size  Location     Type
                  1    wreg      void 
 Registers used:
		wreg, status,2, status,0, cstack
 Tracked objects:
		On entry : 
		On exit  : 
		Unchanged: 
 Data sizes:     COMRAM   BANK0   BANK1   BANK2   BANK3   BANK4   BANK5   BANK6   BANK7   BANK8   BANK9  BANK10  BANK11  BANK12  BANK13  BANK14
      Params:         0       0       0       0       0       0       0       0       0       0       0       0       0       0       0       0
      Locals:         0       0       0       0       0       0       0       0       0       0       0       0       0       0       0       0
      Temps:          0       0       0       1       0       0       0       0       0       0       0       0       0       0       0       0
      Totals:         0       0       0       1       0       0       0       0       0       0       0       0       0       0       0       0
Total ram usage:        1 bytes
 Hardware stack levels used:    1
 Hardware stack levels required when called:   12
 This function calls:
		_getADCError
		_getI2CError
		_getUARTError
 This function is called by:
		_main
		_clearADCErrors
		_clearUARTErrors
		_clearI2CErrors
 This function uses a non-reentrant model


 *************** function _getUARTError *****************
 Defined at:
		line 31 in file "error_handling.c"
 Parameters:    Size  Location     Type
		None
 Auto vars:     Size  Location     Type
		None
 Return value:  Size  Location     Type
                  1    wreg      unsigned char 
 Registers used:
		wreg, status,2
 Tracked objects:
		On entry : 
		On exit  : 
		Unchanged: 
 Data sizes:     COMRAM   BANK0   BANK1   BANK2   BANK3   BANK4   BANK5   BANK6   BANK7   BANK8   BANK9  BANK10  BANK11  BANK12  BANK13  BANK14
      Params:         0       0       0       0       0       0       0       0       0       0       0       0       0       0       0       0
      Locals:         0       0       0       0       0       0       0       0       0       0       0       0       0       0       0       0
      Temps:          0       0       0       0       0       0       0       0       0       0       0       0       0       0       0       0
      Totals:         0       0       0       0       0       0       0       0       0       0       0       0       0       0       0       0
Total ram usage:        0 bytes
 Hardware stack levels used:    1
 Hardware stack levels required when called:   11
 This function calls:
		Nothing
 This function is called by:
		_updateErrorLEDs
		_ringBufferLUT
 This function uses a non-reentrant model


 *************** function _getI2CError *****************
 Defined at:
		line 38 in file "error_handling.c"
 Parameters:    Size  Location     Type
		None
 Auto vars:     Size  Location     Type
		None
 Return value:  Size  Location     Type
                  1    wreg      unsigned char 
 Registers used:
		wreg, status,2
 Tracked objects:
		On entry : 
		On exit  : 
		Unchanged: 
 Data sizes:     COMRAM   BANK0   BANK1   BANK2   BANK3   BANK4   BANK5   BANK6   BANK7   BANK8   BANK9  BANK10  BANK11  BANK12  BANK13  BANK14
      Params:         0       0       0       0       0       0       0       0       0       0       0       0       0       0       0       0
      Locals:         0       0       0       0       0       0       0       0       0       0       0       0       0       0       0       0
      Temps:          0       0       0       0       0       0       0       0       0       0       0       0       0       0       0       0
      Totals:         0       0       0       0       0       0       0       0       0       0       0       0       0       0       0       0
Total ram usage:        0 bytes
 Hardware stack levels used:    1
 Hardware stack levels required when called:   11
 This function calls:
		Nothing
 This function is called by:
		_updateErrorLEDs
		_ringBufferLUT
 This function uses a non-reentrant model


 *************** function _getADCError *****************
 Defined at:
		line 12 in file "error_handling.c"
 Parameters:    Size  Location     Type
		None
 Auto vars:     Size  Location     Type
		None
 Return value:  Size  Location     Type
                  1    wreg      unsigned char 
 Registers used:
		wreg, status,2
 Tracked objects:
		On entry : 
		On exit  : 
		Unchanged: 
 Data sizes:     COMRAM   BANK0   BANK1   BANK2   BANK3   BANK4   BANK5   BANK6   BANK7   BANK8   BANK9  BANK10  BANK11  BANK12  BANK13  BANK14
      Params:         0       0       0       0       0       0       0       0       0       0       0       0       0       0       0       0
      Locals:         0       0       0       0       0       0       0       0       0       0       0       0       0       0       0       0
      Temps:          0       0       0       0       0       0       0       0       0       0       0       0       0       0       0       0
      Totals:         0       0       0       0       0       0       0       0       0       0       0       0       0       0       0       0
Total ram usage:        0 bytes
 Hardware stack levels used:    1
 Hardware stack levels required when called:   11
 This function calls:
		Nothing
 This function is called by:
		_updateErrorLEDs
		_ringBufferLUT
 This function uses a non-reentrant model


 *************** function _EUSART2_Read *****************
 Defined at:
		line 132 in file "mcc_generated_files/eusart2.c"
 Parameters:    Size  Location     Type
		None
 Auto vars:     Size  Location     Type
  readValue       1    0[BANK2 ] unsigned char 
 Return value:  Size  Location     Type
                  1    wreg      unsigned char 
 Registers used:
		wreg, fsr2l, fsr2h, status,2, status,0
 Tracked objects:
		On entry : 
		On exit  : 
		Unchanged: 
 Data sizes:     COMRAM   BANK0   BANK1   BANK2   BANK3   BANK4   BANK5   BANK6   BANK7   BANK8   BANK9  BANK10  BANK11  BANK12  BANK13  BANK14
      Params:         0       0       0       0       0       0       0       0       0       0       0       0       0       0       0       0
      Locals:         0       0       0       1       0       0       0       0       0       0       0       0       0       0       0       0
      Temps:          0       0       0       0       0       0       0       0       0       0       0       0       0       0       0       0
      Totals:         0       0       0       1       0       0       0       0       0       0       0       0       0       0       0       0
Total ram usage:        1 bytes
 Hardware stack levels used:    1
 Hardware stack levels required when called:   11
 This function calls:
		Nothing
 This function is called by:
		_terminal_ringBufferPull
		_getch
 This function uses a non-reentrant model


 *************** function _terminalSetCursorHome *****************
 Defined at:
		line 17 in file "terminal_control.c"
 Parameters:    Size  Location     Type
		None
 Auto vars:     Size  Location     Type
		None
 Return value:  Size  Location     Type
                  1    wreg      void 
 Registers used:
		wreg, fsr0l, fsr0h, fsr2l, fsr2h, status,2, status,0, pclath, tosl, tblptrl, tblptrh, tblptru, prodl, prodh, cstack
 Tracked objects:
		On entry : 
		On exit  : 
		Unchanged: 
 Data sizes:     COMRAM   BANK0   BANK1   BANK2   BANK3   BANK4   BANK5   BANK6   BANK7   BANK8   BANK9  BANK10  BANK11  BANK12  BANK13  BANK14
      Params:         0       0       0       0       0       0       0       0       0       0       0       0       0       0       0       0
      Locals:         0       0       0       0       0       0       0       0       0       0       0       0       0       0       0       0
      Temps:          0       0       0       0       0       0       0       0       0       0       0       0       0       0       0       0
      Totals:         0       0       0       0       0       0       0       0       0       0       0       0       0       0       0       0
Total ram usage:        0 bytes
 Hardware stack levels used:    1
 Hardware stack levels required when called:   15
 This function calls:
		_printf
 This function is called by:
		_main
		_terminalPrintTestMessage
 This function uses a non-reentrant model


 *************** function _terminalClearScreen *****************
 Defined at:
		line 12 in file "terminal_control.c"
 Parameters:    Size  Location     Type
		None
 Auto vars:     Size  Location     Type
		None
 Return value:  Size  Location     Type
                  1    wreg      void 
 Registers used:
		wreg, fsr0l, fsr0h, fsr2l, fsr2h, status,2, status,0, pclath, tosl, tblptrl, tblptrh, tblptru, prodl, prodh, cstack
 Tracked objects:
		On entry : 
		On exit  : 
		Unchanged: 
 Data sizes:     COMRAM   BANK0   BANK1   BANK2   BANK3   BANK4   BANK5   BANK6   BANK7   BANK8   BANK9  BANK10  BANK11  BANK12  BANK13  BANK14
      Params:         0       0       0       0       0       0       0       0       0       0       0       0       0       0       0       0
      Locals:         0       0       0       0       0       0       0       0       0       0       0       0       0       0       0       0
      Temps:          0       0       0       0       0       0       0       0       0       0       0       0       0       0       0       0
      Totals:         0       0       0       0       0       0       0       0       0       0       0       0       0       0       0       0
Total ram usage:        0 bytes
 Hardware stack levels used:    1
 Hardware stack levels required when called:   15
 This function calls:
		_printf
 This function is called by:
		_main
		_terminalPrintTestMessage
 This function uses a non-reentrant model


 *************** function _printf *****************
 Defined at:
		line 13 in file "C:\Program Files (x86)\Microchip\xc8\v2.05\pic\sources\c90\common\printf.c"
 Parameters:    Size  Location     Type
  f               2  159[BANK2 ] PTR const unsigned char 
		 -> STR_330(60), STR_329(24), STR_328(24), STR_327(24), 
		 -> STR_326(27), STR_325(20), STR_324(35), STR_323(34), 
		 -> STR_322(37), STR_321(34), STR_320(36), STR_319(35), 
		 -> STR_318(33), STR_317(35), STR_316(20), STR_315(23), 
		 -> STR_314(20), STR_313(22), STR_312(21), STR_311(19), 
		 -> STR_310(21), STR_309(27), STR_308(18), STR_307(11), 
		 -> terminalTextAttributes@print_string(16), STR_277(4), STR_276(4), STR_275(4), 
		 -> STR_274(4), STR_273(5), STR_272(45), STR_271(88), 
		 -> STR_270(37), STR_269(30), STR_268(46), STR_267(39), 
		 -> STR_266(62), STR_265(57), STR_264(2233), STR_263(22), 
		 -> STR_261(49), STR_260(49), STR_258(36), STR_257(54), 
		 -> STR_256(31), STR_254(55), STR_253(32), STR_251(56), 
		 -> STR_250(34), STR_248(42), STR_246(48), STR_244(47), 
		 -> STR_242(41), STR_240(50), STR_238(51), STR_236(31), 
		 -> STR_234(88), STR_232(46), STR_230(44), STR_228(54), 
		 -> STR_226(36), STR_224(35), STR_222(28), STR_221(60), 
		 -> STR_220(26), STR_219(27), STR_218(59), STR_217(29), 
		 -> STR_216(31), STR_215(33), STR_214(36), STR_213(24), 
		 -> STR_212(42), STR_211(27), STR_210(48), STR_209(10), 
		 -> STR_208(24), STR_207(46), STR_206(25), STR_204(24), 
		 -> STR_202(23), STR_200(23), STR_198(40), STR_196(39), 
		 -> STR_194(51), STR_192(56), STR_191(64), STR_189(59), 
		 -> STR_187(44), STR_185(54), STR_183(52), STR_181(4), 
		 -> STR_180(5), STR_178(4), STR_177(5), STR_10(47), 
		 -> STR_9(30), STR_8(46), STR_7(39), STR_6(62), 
		 -> STR_5(57), STR_4(39), STR_3(44), STR_2(52), 
		 -> STR_1(4), 
 Auto vars:     Size  Location     Type
  pb              5  169[BANK2 ] struct __prbuf
  ap              2  167[BANK2 ] PTR void [1]
		 -> ?_sprintf(2), ?_printf(2), 
 Return value:  Size  Location     Type
                  2  159[BANK2 ] int 
 Registers used:
		wreg, fsr0l, fsr0h, fsr2l, fsr2h, status,2, status,0, pclath, tosl, tblptrl, tblptrh, tblptru, prodl, prodh, cstack
 Tracked objects:
		On entry : 
		On exit  : 
		Unchanged: 
 Data sizes:     COMRAM   BANK0   BANK1   BANK2   BANK3   BANK4   BANK5   BANK6   BANK7   BANK8   BANK9  BANK10  BANK11  BANK12  BANK13  BANK14
      Params:         0       0       0       8       0       0       0       0       0       0       0       0       0       0       0       0
      Locals:         0       0       0       7       0       0       0       0       0       0       0       0       0       0       0       0
      Temps:          0       0       0       0       0       0       0       0       0       0       0       0       0       0       0       0
      Totals:         0       0       0      15       0       0       0       0       0       0       0       0       0       0       0       0
Total ram usage:       15 bytes
 Hardware stack levels used:    1
 Hardware stack levels required when called:   14
 This function calls:
		__doprnt
 This function is called by:
		_main
		_ringBufferLUT
		_terminalClearScreen
		_terminalSetCursorHome
		_terminalTextAttributes
		_terminalTextAttributesReset
		_terminalClearLine
		_terminalSaveCursor
		_terminalReturnCursor
		_terminalPrintTestMessage
 This function uses a non-reentrant model


 *************** function _getCauseOfReset *****************
 Defined at:
		line 11 in file "cause_of_reset.c"
 Parameters:    Size  Location     Type
		None
 Auto vars:     Size  Location     Type
  return_reset    1    0[BANK2 ] enum E9577
 Return value:  Size  Location     Type
                  1    wreg      enum E10197
 Registers used:
		wreg, status,2
 Tracked objects:
		On entry : 
		On exit  : 
		Unchanged: 
 Data sizes:     COMRAM   BANK0   BANK1   BANK2   BANK3   BANK4   BANK5   BANK6   BANK7   BANK8   BANK9  BANK10  BANK11  BANK12  BANK13  BANK14
      Params:         0       0       0       0       0       0       0       0       0       0       0       0       0       0       0       0
      Locals:         0       0       0       1       0       0       0       0       0       0       0       0       0       0       0       0
      Temps:          0       0       0       0       0       0       0       0       0       0       0       0       0       0       0       0
      Totals:         0       0       0       1       0       0       0       0       0       0       0       0       0       0       0       0
Total ram usage:        1 bytes
 Hardware stack levels used:    1
 Hardware stack levels required when called:   11
 This function calls:
		Nothing
 This function is called by:
		_main
 This function uses a non-reentrant model


 *************** function _freqMeasStartCaptures *****************
 Defined at:
		line 5 in file "freq_meas.c"
 Parameters:    Size  Location     Type
		None
 Auto vars:     Size  Location     Type
		None
 Return value:  Size  Location     Type
                  1    wreg      void 
 Registers used:
		wreg, status,2
 Tracked objects:
		On entry : 
		On exit  : 
		Unchanged: 
 Data sizes:     COMRAM   BANK0   BANK1   BANK2   BANK3   BANK4   BANK5   BANK6   BANK7   BANK8   BANK9  BANK10  BANK11  BANK12  BANK13  BANK14
      Params:         0       0       0       0       0       0       0       0       0       0       0       0       0       0       0       0
      Locals:         0       0       0       0       0       0       0       0       0       0       0       0       0       0       0       0
      Temps:          0       0       0       0       0       0       0       0       0       0       0       0       0       0       0       0
      Totals:         0       0       0       0       0       0       0       0       0       0       0       0       0       0       0       0
Total ram usage:        0 bytes
 Hardware stack levels used:    1
 Hardware stack levels required when called:   11
 This function calls:
		Nothing
 This function is called by:
		_main
 This function uses a non-reentrant model


 *************** function _TMR5_WriteTimer *****************
 Defined at:
		line 120 in file "mcc_generated_files/tmr5.c"
 Parameters:    Size  Location     Type
  timerVal        2    0[BANK2 ] unsigned int 
 Auto vars:     Size  Location     Type
		None
 Return value:  Size  Location     Type
                  1    wreg      void 
 Registers used:
		wreg, status,2
 Tracked objects:
		On entry : 
		On exit  : 
		Unchanged: 
 Data sizes:     COMRAM   BANK0   BANK1   BANK2   BANK3   BANK4   BANK5   BANK6   BANK7   BANK8   BANK9  BANK10  BANK11  BANK12  BANK13  BANK14
      Params:         0       0       0       2       0       0       0       0       0       0       0       0       0       0       0       0
      Locals:         0       0       0       0       0       0       0       0       0       0       0       0       0       0       0       0
      Temps:          0       0       0       0       0       0       0       0       0       0       0       0       0       0       0       0
      Totals:         0       0       0       2       0       0       0       0       0       0       0       0       0       0       0       0
Total ram usage:        2 bytes
 Hardware stack levels used:    1
 Hardware stack levels required when called:   11
 This function calls:
		Nothing
 This function is called by:
		_main
		_TMR5_Reload
 This function uses a non-reentrant model


 *************** function _TMR5_StopTimer *****************
 Defined at:
		line 98 in file "mcc_generated_files/tmr5.c"
 Parameters:    Size  Location     Type
		None
 Auto vars:     Size  Location     Type
		None
 Return value:  Size  Location     Type
                  1    wreg      void 
 Registers used:
		None
 Tracked objects:
		On entry : 
		On exit  : 
		Unchanged: 
 Data sizes:     COMRAM   BANK0   BANK1   BANK2   BANK3   BANK4   BANK5   BANK6   BANK7   BANK8   BANK9  BANK10  BANK11  BANK12  BANK13  BANK14
      Params:         0       0       0       0       0       0       0       0       0       0       0       0       0       0       0       0
      Locals:         0       0       0       0       0       0       0       0       0       0       0       0       0       0       0       0
      Temps:          0       0       0       0       0       0       0       0       0       0       0       0       0       0       0       0
      Totals:         0       0       0       0       0       0       0       0       0       0       0       0       0       0       0       0
Total ram usage:        0 bytes
 Hardware stack levels used:    1
 Hardware stack levels required when called:   11
 This function calls:
		Nothing
 This function is called by:
		_main
 This function uses a non-reentrant model


 *************** function _TMR3_StopTimer *****************
 Defined at:
		line 105 in file "mcc_generated_files/tmr3.c"
 Parameters:    Size  Location     Type
		None
 Auto vars:     Size  Location     Type
		None
 Return value:  Size  Location     Type
                  1    wreg      void 
 Registers used:
		None
 Tracked objects:
		On entry : 
		On exit  : 
		Unchanged: 
 Data sizes:     COMRAM   BANK0   BANK1   BANK2   BANK3   BANK4   BANK5   BANK6   BANK7   BANK8   BANK9  BANK10  BANK11  BANK12  BANK13  BANK14
      Params:         0       0       0       0       0       0       0       0       0       0       0       0       0       0       0       0
      Locals:         0       0       0       0       0       0       0       0       0       0       0       0       0       0       0       0
      Temps:          0       0       0       0       0       0       0       0       0       0       0       0       0       0       0       0
      Totals:         0       0       0       0       0       0       0       0       0       0       0       0       0       0       0       0
Total ram usage:        0 bytes
 Hardware stack levels used:    1
 Hardware stack levels required when called:   11
 This function calls:
		Nothing
 This function is called by:
		_main
 This function uses a non-reentrant model


 *************** function _TMR3_Reload *****************
 Defined at:
		line 149 in file "mcc_generated_files/tmr3.c"
 Parameters:    Size  Location     Type
		None
 Auto vars:     Size  Location     Type
		None
 Return value:  Size  Location     Type
                  1    wreg      void 
 Registers used:
		wreg, status,2, cstack
 Tracked objects:
		On entry : 
		On exit  : 
		Unchanged: 
 Data sizes:     COMRAM   BANK0   BANK1   BANK2   BANK3   BANK4   BANK5   BANK6   BANK7   BANK8   BANK9  BANK10  BANK11  BANK12  BANK13  BANK14
      Params:         0       0       0       0       0       0       0       0       0       0       0       0       0       0       0       0
      Locals:         0       0       0       0       0       0       0       0       0       0       0       0       0       0       0       0
      Temps:          0       0       0       0       0       0       0       0       0       0       0       0       0       0       0       0
      Totals:         0       0       0       0       0       0       0       0       0       0       0       0       0       0       0       0
Total ram usage:        0 bytes
 Hardware stack levels used:    1
 Hardware stack levels required when called:   12
 This function calls:
		_TMR3_WriteTimer
 This function is called by:
		_main
 This function uses a non-reentrant model


 *************** function _TMR3_WriteTimer *****************
 Defined at:
		line 127 in file "mcc_generated_files/tmr3.c"
 Parameters:    Size  Location     Type
  timerVal        2    0[BANK2 ] unsigned int 
 Auto vars:     Size  Location     Type
		None
 Return value:  Size  Location     Type
                  1    wreg      void 
 Registers used:
		wreg, status,2
 Tracked objects:
		On entry : 
		On exit  : 
		Unchanged: 
 Data sizes:     COMRAM   BANK0   BANK1   BANK2   BANK3   BANK4   BANK5   BANK6   BANK7   BANK8   BANK9  BANK10  BANK11  BANK12  BANK13  BANK14
      Params:         0       0       0       2       0       0       0       0       0       0       0       0       0       0       0       0
      Locals:         0       0       0       0       0       0       0       0       0       0       0       0       0       0       0       0
      Temps:          0       0       0       0       0       0       0       0       0       0       0       0       0       0       0       0
      Totals:         0       0       0       2       0       0       0       0       0       0       0       0       0       0       0       0
Total ram usage:        2 bytes
 Hardware stack levels used:    1
 Hardware stack levels required when called:   11
 This function calls:
		Nothing
 This function is called by:
		_TMR3_Reload
 This function uses a non-reentrant model


 *************** function _TMR1_StopTimer *****************
 Defined at:
		line 105 in file "mcc_generated_files/tmr1.c"
 Parameters:    Size  Location     Type
		None
 Auto vars:     Size  Location     Type
		None
 Return value:  Size  Location     Type
                  1    wreg      void 
 Registers used:
		None
 Tracked objects:
		On entry : 
		On exit  : 
		Unchanged: 
 Data sizes:     COMRAM   BANK0   BANK1   BANK2   BANK3   BANK4   BANK5   BANK6   BANK7   BANK8   BANK9  BANK10  BANK11  BANK12  BANK13  BANK14
      Params:         0       0       0       0       0       0       0       0       0       0       0       0       0       0       0       0
      Locals:         0       0       0       0       0       0       0       0       0       0       0       0       0       0       0       0
      Temps:          0       0       0       0       0       0       0       0       0       0       0       0       0       0       0       0
      Totals:         0       0       0       0       0       0       0       0       0       0       0       0       0       0       0       0
Total ram usage:        0 bytes
 Hardware stack levels used:    1
 Hardware stack levels required when called:   11
 This function calls:
		Nothing
 This function is called by:
		_main
 This function uses a non-reentrant model


 *************** function _TMR1_Reload *****************
 Defined at:
		line 149 in file "mcc_generated_files/tmr1.c"
 Parameters:    Size  Location     Type
		None
 Auto vars:     Size  Location     Type
		None
 Return value:  Size  Location     Type
                  1    wreg      void 
 Registers used:
		wreg, status,2, cstack
 Tracked objects:
		On entry : 
		On exit  : 
		Unchanged: 
 Data sizes:     COMRAM   BANK0   BANK1   BANK2   BANK3   BANK4   BANK5   BANK6   BANK7   BANK8   BANK9  BANK10  BANK11  BANK12  BANK13  BANK14
      Params:         0       0       0       0       0       0       0       0       0       0       0       0       0       0       0       0
      Locals:         0       0       0       0       0       0       0       0       0       0       0       0       0       0       0       0
      Temps:          0       0       0       0       0       0       0       0       0       0       0       0       0       0       0       0
      Totals:         0       0       0       0       0       0       0       0       0       0       0       0       0       0       0       0
Total ram usage:        0 bytes
 Hardware stack levels used:    1
 Hardware stack levels required when called:   12
 This function calls:
		_TMR1_WriteTimer
 This function is called by:
		_main
 This function uses a non-reentrant model


 *************** function _TMR1_WriteTimer *****************
 Defined at:
		line 127 in file "mcc_generated_files/tmr1.c"
 Parameters:    Size  Location     Type
  timerVal        2    0[BANK2 ] unsigned int 
 Auto vars:     Size  Location     Type
		None
 Return value:  Size  Location     Type
                  1    wreg      void 
 Registers used:
		wreg, status,2
 Tracked objects:
		On entry : 
		On exit  : 
		Unchanged: 
 Data sizes:     COMRAM   BANK0   BANK1   BANK2   BANK3   BANK4   BANK5   BANK6   BANK7   BANK8   BANK9  BANK10  BANK11  BANK12  BANK13  BANK14
      Params:         0       0       0       2       0       0       0       0       0       0       0       0       0       0       0       0
      Locals:         0       0       0       0       0       0       0       0       0       0       0       0       0       0       0       0
      Temps:          0       0       0       0       0       0       0       0       0       0       0       0       0       0       0       0
      Totals:         0       0       0       2       0       0       0       0       0       0       0       0       0       0       0       0
Total ram usage:        2 bytes
 Hardware stack levels used:    1
 Hardware stack levels required when called:   11
 This function calls:
		Nothing
 This function is called by:
		_TMR1_Reload
 This function uses a non-reentrant model


 *************** function _SYSTEM_Initialize *****************
 Defined at:
		line 50 in file "mcc_generated_files/mcc.c"
 Parameters:    Size  Location     Type
		None
 Auto vars:     Size  Location     Type
		None
 Return value:  Size  Location     Type
                  1    wreg      void 
 Registers used:
		wreg, status,2, status,0, cstack
 Tracked objects:
		On entry : 
		On exit  : 
		Unchanged: 
 Data sizes:     COMRAM   BANK0   BANK1   BANK2   BANK3   BANK4   BANK5   BANK6   BANK7   BANK8   BANK9  BANK10  BANK11  BANK12  BANK13  BANK14
      Params:         0       0       0       0       0       0       0       0       0       0       0       0       0       0       0       0
      Locals:         0       0       0       0       0       0       0       0       0       0       0       0       0       0       0       0
      Temps:          0       0       0       0       0       0       0       0       0       0       0       0       0       0       0       0
      Totals:         0       0       0       0       0       0       0       0       0       0       0       0       0       0       0       0
Total ram usage:        0 bytes
 Hardware stack levels used:    1
 Hardware stack levels required when called:   13
 This function calls:
		_ADCC_Initialize
		_CCP2_Initialize
		_EUSART2_Initialize
		_EXT_INT_Initialize
		_FVR_Initialize
		_I2C2_Initialize
		_INTERRUPT_Initialize
		_OSCILLATOR_Initialize
		_PIN_MANAGER_Initialize
		_PMD_Initialize
		_TMR0_Initialize
		_TMR1_Initialize
		_TMR2_Initialize
		_TMR3_Initialize
		_TMR5_Initialize
 This function is called by:
		_main
 This function uses a non-reentrant model


 *************** function _TMR5_Initialize *****************
 Defined at:
		line 63 in file "mcc_generated_files/tmr5.c"
 Parameters:    Size  Location     Type
		None
 Auto vars:     Size  Location     Type
		None
 Return value:  Size  Location     Type
                  1    wreg      void 
 Registers used:
		wreg, status,2, status,0
 Tracked objects:
		On entry : 
		On exit  : 
		Unchanged: 
 Data sizes:     COMRAM   BANK0   BANK1   BANK2   BANK3   BANK4   BANK5   BANK6   BANK7   BANK8   BANK9  BANK10  BANK11  BANK12  BANK13  BANK14
      Params:         0       0       0       0       0       0       0       0       0       0       0       0       0       0       0       0
      Locals:         0       0       0       0       0       0       0       0       0       0       0       0       0       0       0       0
      Temps:          0       0       0       2       0       0       0       0       0       0       0       0       0       0       0       0
      Totals:         0       0       0       2       0       0       0       0       0       0       0       0       0       0       0       0
Total ram usage:        2 bytes
 Hardware stack levels used:    1
 Hardware stack levels required when called:   11
 This function calls:
		Nothing
 This function is called by:
		_SYSTEM_Initialize
 This function uses a non-reentrant model


 *************** function _TMR3_Initialize *****************
 Defined at:
		line 64 in file "mcc_generated_files/tmr3.c"
 Parameters:    Size  Location     Type
		None
 Auto vars:     Size  Location     Type
		None
 Return value:  Size  Location     Type
                  1    wreg      void 
 Registers used:
		wreg, status,2, status,0, cstack
 Tracked objects:
		On entry : 
		On exit  : 
		Unchanged: 
 Data sizes:     COMRAM   BANK0   BANK1   BANK2   BANK3   BANK4   BANK5   BANK6   BANK7   BANK8   BANK9  BANK10  BANK11  BANK12  BANK13  BANK14
      Params:         0       0       0       0       0       0       0       0       0       0       0       0       0       0       0       0
      Locals:         0       0       0       0       0       0       0       0       0       0       0       0       0       0       0       0
      Temps:          0       0       0       2       0       0       0       0       0       0       0       0       0       0       0       0
      Totals:         0       0       0       2       0       0       0       0       0       0       0       0       0       0       0       0
Total ram usage:        2 bytes
 Hardware stack levels used:    1
 Hardware stack levels required when called:   12
 This function calls:
		_TMR3_SetInterruptHandler
 This function is called by:
		_SYSTEM_Initialize
 This function uses a non-reentrant model


 *************** function _TMR3_SetInterruptHandler *****************
 Defined at:
		line 178 in file "mcc_generated_files/tmr3.c"
 Parameters:    Size  Location     Type
  InterruptHan    3    0[BANK2 ] PTR FTN()void 
		 -> QIIdleChargedTimerHandler(1), TMR3_DefaultInterruptHandler(1), 
 Auto vars:     Size  Location     Type
		None
 Return value:  Size  Location     Type
                  1    wreg      void 
 Registers used:
		wreg, status,2, status,0
 Tracked objects:
		On entry : 
		On exit  : 
		Unchanged: 
 Data sizes:     COMRAM   BANK0   BANK1   BANK2   BANK3   BANK4   BANK5   BANK6   BANK7   BANK8   BANK9  BANK10  BANK11  BANK12  BANK13  BANK14
      Params:         0       0       0       3       0       0       0       0       0       0       0       0       0       0       0       0
      Locals:         0       0       0       0       0       0       0       0       0       0       0       0       0       0       0       0
      Temps:          0       0       0       0       0       0       0       0       0       0       0       0       0       0       0       0
      Totals:         0       0       0       3       0       0       0       0       0       0       0       0       0       0       0       0
Total ram usage:        3 bytes
 Hardware stack levels used:    1
 Hardware stack levels required when called:   11
 This function calls:
		Nothing
 This function is called by:
		_TMR3_Initialize
		_main
 This function uses a non-reentrant model


 *************** function _TMR2_Initialize *****************
 Defined at:
		line 64 in file "mcc_generated_files/tmr2.c"
 Parameters:    Size  Location     Type
		None
 Auto vars:     Size  Location     Type
		None
 Return value:  Size  Location     Type
                  1    wreg      void 
 Registers used:
		wreg, status,2, status,0, cstack
 Tracked objects:
		On entry : 
		On exit  : 
		Unchanged: 
 Data sizes:     COMRAM   BANK0   BANK1   BANK2   BANK3   BANK4   BANK5   BANK6   BANK7   BANK8   BANK9  BANK10  BANK11  BANK12  BANK13  BANK14
      Params:         0       0       0       0       0       0       0       0       0       0       0       0       0       0       0       0
      Locals:         0       0       0       0       0       0       0       0       0       0       0       0       0       0       0       0
      Temps:          0       0       0       0       0       0       0       0       0       0       0       0       0       0       0       0
      Totals:         0       0       0       0       0       0       0       0       0       0       0       0       0       0       0       0
Total ram usage:        0 bytes
 Hardware stack levels used:    1
 Hardware stack levels required when called:   12
 This function calls:
		_TMR2_SetInterruptHandler
 This function is called by:
		_SYSTEM_Initialize
 This function uses a non-reentrant model


 *************** function _TMR2_SetInterruptHandler *****************
 Defined at:
		line 178 in file "mcc_generated_files/tmr2.c"
 Parameters:    Size  Location     Type
  InterruptHan    3    0[BANK2 ] PTR FTN()void 
		 -> ADC_acquisitionTimerHandler(1), TMR2_DefaultInterruptHandler(1), 
 Auto vars:     Size  Location     Type
		None
 Return value:  Size  Location     Type
                  1    wreg      void 
 Registers used:
		wreg, status,2, status,0
 Tracked objects:
		On entry : 
		On exit  : 
		Unchanged: 
 Data sizes:     COMRAM   BANK0   BANK1   BANK2   BANK3   BANK4   BANK5   BANK6   BANK7   BANK8   BANK9  BANK10  BANK11  BANK12  BANK13  BANK14
      Params:         0       0       0       3       0       0       0       0       0       0       0       0       0       0       0       0
      Locals:         0       0       0       0       0       0       0       0       0       0       0       0       0       0       0       0
      Temps:          0       0       0       0       0       0       0       0       0       0       0       0       0       0       0       0
      Totals:         0       0       0       3       0       0       0       0       0       0       0       0       0       0       0       0
Total ram usage:        3 bytes
 Hardware stack levels used:    1
 Hardware stack levels required when called:   11
 This function calls:
		Nothing
 This function is called by:
		_TMR2_Initialize
		_main
 This function uses a non-reentrant model


 *************** function _TMR1_Initialize *****************
 Defined at:
		line 64 in file "mcc_generated_files/tmr1.c"
 Parameters:    Size  Location     Type
		None
 Auto vars:     Size  Location     Type
		None
 Return value:  Size  Location     Type
                  1    wreg      void 
 Registers used:
		wreg, status,2, status,0, cstack
 Tracked objects:
		On entry : 
		On exit  : 
		Unchanged: 
 Data sizes:     COMRAM   BANK0   BANK1   BANK2   BANK3   BANK4   BANK5   BANK6   BANK7   BANK8   BANK9  BANK10  BANK11  BANK12  BANK13  BANK14
      Params:         0       0       0       0       0       0       0       0       0       0       0       0       0       0       0       0
      Locals:         0       0       0       0       0       0       0       0       0       0       0       0       0       0       0       0
      Temps:          0       0       0       2       0       0       0       0       0       0       0       0       0       0       0       0
      Totals:         0       0       0       2       0       0       0       0       0       0       0       0       0       0       0       0
Total ram usage:        2 bytes
 Hardware stack levels used:    1
 Hardware stack levels required when called:   12
 This function calls:
		_TMR1_SetInterruptHandler
 This function is called by:
		_SYSTEM_Initialize
 This function uses a non-reentrant model


 *************** function _TMR1_SetInterruptHandler *****************
 Defined at:
		line 178 in file "mcc_generated_files/tmr1.c"
 Parameters:    Size  Location     Type
  InterruptHan    3    0[BANK2 ] PTR FTN()void 
		 -> TMR1_DefaultInterruptHandler(1), QIErrorTimerHandler(1), 
 Auto vars:     Size  Location     Type
		None
 Return value:  Size  Location     Type
                  1    wreg      void 
 Registers used:
		wreg, status,2, status,0
 Tracked objects:
		On entry : 
		On exit  : 
		Unchanged: 
 Data sizes:     COMRAM   BANK0   BANK1   BANK2   BANK3   BANK4   BANK5   BANK6   BANK7   BANK8   BANK9  BANK10  BANK11  BANK12  BANK13  BANK14
      Params:         0       0       0       3       0       0       0       0       0       0       0       0       0       0       0       0
      Locals:         0       0       0       0       0       0       0       0       0       0       0       0       0       0       0       0
      Temps:          0       0       0       0       0       0       0       0       0       0       0       0       0       0       0       0
      Totals:         0       0       0       3       0       0       0       0       0       0       0       0       0       0       0       0
Total ram usage:        3 bytes
 Hardware stack levels used:    1
 Hardware stack levels required when called:   11
 This function calls:
		Nothing
 This function is called by:
		_main
		_TMR1_Initialize
 This function uses a non-reentrant model


 *************** function _TMR0_Initialize *****************
 Defined at:
		line 61 in file "mcc_generated_files/tmr0.c"
 Parameters:    Size  Location     Type
		None
 Auto vars:     Size  Location     Type
		None
 Return value:  Size  Location     Type
                  1    wreg      void 
 Registers used:
		wreg, status,2, status,0, cstack
 Tracked objects:
		On entry : 
		On exit  : 
		Unchanged: 
 Data sizes:     COMRAM   BANK0   BANK1   BANK2   BANK3   BANK4   BANK5   BANK6   BANK7   BANK8   BANK9  BANK10  BANK11  BANK12  BANK13  BANK14
      Params:         0       0       0       0       0       0       0       0       0       0       0       0       0       0       0       0
      Locals:         0       0       0       0       0       0       0       0       0       0       0       0       0       0       0       0
      Temps:          0       0       0       0       0       0       0       0       0       0       0       0       0       0       0       0
      Totals:         0       0       0       0       0       0       0       0       0       0       0       0       0       0       0       0
Total ram usage:        0 bytes
 Hardware stack levels used:    1
 Hardware stack levels required when called:   12
 This function calls:
		_TMR0_SetInterruptHandler
 This function is called by:
		_SYSTEM_Initialize
 This function uses a non-reentrant model


 *************** function _TMR0_SetInterruptHandler *****************
 Defined at:
		line 134 in file "mcc_generated_files/tmr0.c"
 Parameters:    Size  Location     Type
  InterruptHan    3    0[BANK2 ] PTR FTN()void 
		 -> heartbeatTimerHandler(1), TMR0_DefaultInterruptHandler(1), 
 Auto vars:     Size  Location     Type
		None
 Return value:  Size  Location     Type
                  1    wreg      void 
 Registers used:
		wreg, status,2, status,0
 Tracked objects:
		On entry : 
		On exit  : 
		Unchanged: 
 Data sizes:     COMRAM   BANK0   BANK1   BANK2   BANK3   BANK4   BANK5   BANK6   BANK7   BANK8   BANK9  BANK10  BANK11  BANK12  BANK13  BANK14
      Params:         0       0       0       3       0       0       0       0       0       0       0       0       0       0       0       0
      Locals:         0       0       0       0       0       0       0       0       0       0       0       0       0       0       0       0
      Temps:          0       0       0       0       0       0       0       0       0       0       0       0       0       0       0       0
      Totals:         0       0       0       3       0       0       0       0       0       0       0       0       0       0       0       0
Total ram usage:        3 bytes
 Hardware stack levels used:    1
 Hardware stack levels required when called:   11
 This function calls:
		Nothing
 This function is called by:
		_TMR0_Initialize
		_main
 This function uses a non-reentrant model


 *************** function _PMD_Initialize *****************
 Defined at:
		line 83 in file "mcc_generated_files/mcc.c"
 Parameters:    Size  Location     Type
		None
 Auto vars:     Size  Location     Type
		None
 Return value:  Size  Location     Type
                  1    wreg      void 
 Registers used:
		wreg, status,2
 Tracked objects:
		On entry : 
		On exit  : 
		Unchanged: 
 Data sizes:     COMRAM   BANK0   BANK1   BANK2   BANK3   BANK4   BANK5   BANK6   BANK7   BANK8   BANK9  BANK10  BANK11  BANK12  BANK13  BANK14
      Params:         0       0       0       0       0       0       0       0       0       0       0       0       0       0       0       0
      Locals:         0       0       0       0       0       0       0       0       0       0       0       0       0       0       0       0
      Temps:          0       0       0       0       0       0       0       0       0       0       0       0       0       0       0       0
      Totals:         0       0       0       0       0       0       0       0       0       0       0       0       0       0       0       0
Total ram usage:        0 bytes
 Hardware stack levels used:    1
 Hardware stack levels required when called:   11
 This function calls:
		Nothing
 This function is called by:
		_SYSTEM_Initialize
 This function uses a non-reentrant model


 *************** function _PIN_MANAGER_Initialize *****************
 Defined at:
		line 60 in file "mcc_generated_files/pin_manager.c"
 Parameters:    Size  Location     Type
		None
 Auto vars:     Size  Location     Type
		None
 Return value:  Size  Location     Type
                  1    wreg      void 
 Registers used:
		wreg, status,2, status,0, cstack
 Tracked objects:
		On entry : 
		On exit  : 
		Unchanged: 
 Data sizes:     COMRAM   BANK0   BANK1   BANK2   BANK3   BANK4   BANK5   BANK6   BANK7   BANK8   BANK9  BANK10  BANK11  BANK12  BANK13  BANK14
      Params:         0       0       0       0       0       0       0       0       0       0       0       0       0       0       0       0
      Locals:         0       0       0       0       0       0       0       0       0       0       0       0       0       0       0       0
      Temps:          0       0       0       0       0       0       0       0       0       0       0       0       0       0       0       0
      Totals:         0       0       0       0       0       0       0       0       0       0       0       0       0       0       0       0
Total ram usage:        0 bytes
 Hardware stack levels used:    1
 Hardware stack levels required when called:   12
 This function calls:
		_IOCBF2_SetInterruptHandler
		_IOCBF3_SetInterruptHandler
 This function is called by:
		_SYSTEM_Initialize
 This function uses a non-reentrant model


 *************** function _IOCBF3_SetInterruptHandler *****************
 Defined at:
		line 205 in file "mcc_generated_files/pin_manager.c"
 Parameters:    Size  Location     Type
  InterruptHan    3    0[BANK2 ] PTR FTN()void 
		 -> QIChargeIOCHandler(1), IOCBF3_DefaultInterruptHandler(1), 
 Auto vars:     Size  Location     Type
		None
 Return value:  Size  Location     Type
                  1    wreg      void 
 Registers used:
		wreg, status,2, status,0
 Tracked objects:
		On entry : 
		On exit  : 
		Unchanged: 
 Data sizes:     COMRAM   BANK0   BANK1   BANK2   BANK3   BANK4   BANK5   BANK6   BANK7   BANK8   BANK9  BANK10  BANK11  BANK12  BANK13  BANK14
      Params:         0       0       0       3       0       0       0       0       0       0       0       0       0       0       0       0
      Locals:         0       0       0       0       0       0       0       0       0       0       0       0       0       0       0       0
      Temps:          0       0       0       0       0       0       0       0       0       0       0       0       0       0       0       0
      Totals:         0       0       0       3       0       0       0       0       0       0       0       0       0       0       0       0
Total ram usage:        3 bytes
 Hardware stack levels used:    1
 Hardware stack levels required when called:   11
 This function calls:
		Nothing
 This function is called by:
		_PIN_MANAGER_Initialize
		_main
 This function uses a non-reentrant model


 *************** function _IOCBF2_SetInterruptHandler *****************
 Defined at:
		line 175 in file "mcc_generated_files/pin_manager.c"
 Parameters:    Size  Location     Type
  InterruptHan    3    0[BANK2 ] PTR FTN()void 
		 -> QIIdleIOCHandler(1), IOCBF2_DefaultInterruptHandler(1), 
 Auto vars:     Size  Location     Type
		None
 Return value:  Size  Location     Type
                  1    wreg      void 
 Registers used:
		wreg, status,2, status,0
 Tracked objects:
		On entry : 
		On exit  : 
		Unchanged: 
 Data sizes:     COMRAM   BANK0   BANK1   BANK2   BANK3   BANK4   BANK5   BANK6   BANK7   BANK8   BANK9  BANK10  BANK11  BANK12  BANK13  BANK14
      Params:         0       0       0       3       0       0       0       0       0       0       0       0       0       0       0       0
      Locals:         0       0       0       0       0       0       0       0       0       0       0       0       0       0       0       0
      Temps:          0       0       0       0       0       0       0       0       0       0       0       0       0       0       0       0
      Totals:         0       0       0       3       0       0       0       0       0       0       0       0       0       0       0       0
Total ram usage:        3 bytes
 Hardware stack levels used:    1
 Hardware stack levels required when called:   11
 This function calls:
		Nothing
 This function is called by:
		_PIN_MANAGER_Initialize
		_main
 This function uses a non-reentrant model


 *************** function _OSCILLATOR_Initialize *****************
 Defined at:
		line 69 in file "mcc_generated_files/mcc.c"
 Parameters:    Size  Location     Type
		None
 Auto vars:     Size  Location     Type
		None
 Return value:  Size  Location     Type
                  1    wreg      void 
 Registers used:
		wreg, status,2
 Tracked objects:
		On entry : 
		On exit  : 
		Unchanged: 
 Data sizes:     COMRAM   BANK0   BANK1   BANK2   BANK3   BANK4   BANK5   BANK6   BANK7   BANK8   BANK9  BANK10  BANK11  BANK12  BANK13  BANK14
      Params:         0       0       0       0       0       0       0       0       0       0       0       0       0       0       0       0
      Locals:         0       0       0       0       0       0       0       0       0       0       0       0       0       0       0       0
      Temps:          0       0       0       0       0       0       0       0       0       0       0       0       0       0       0       0
      Totals:         0       0       0       0       0       0       0       0       0       0       0       0       0       0       0       0
Total ram usage:        0 bytes
 Hardware stack levels used:    1
 Hardware stack levels required when called:   11
 This function calls:
		Nothing
 This function is called by:
		_SYSTEM_Initialize
 This function uses a non-reentrant model


 *************** function _INTERRUPT_Initialize *****************
 Defined at:
		line 52 in file "mcc_generated_files/interrupt_manager.c"
 Parameters:    Size  Location     Type
		None
 Auto vars:     Size  Location     Type
		None
 Return value:  Size  Location     Type
                  1    wreg      void 
 Registers used:
		None
 Tracked objects:
		On entry : 
		On exit  : 
		Unchanged: 
 Data sizes:     COMRAM   BANK0   BANK1   BANK2   BANK3   BANK4   BANK5   BANK6   BANK7   BANK8   BANK9  BANK10  BANK11  BANK12  BANK13  BANK14
      Params:         0       0       0       0       0       0       0       0       0       0       0       0       0       0       0       0
      Locals:         0       0       0       0       0       0       0       0       0       0       0       0       0       0       0       0
      Temps:          0       0       0       0       0       0       0       0       0       0       0       0       0       0       0       0
      Totals:         0       0       0       0       0       0       0       0       0       0       0       0       0       0       0       0
Total ram usage:        0 bytes
 Hardware stack levels used:    1
 Hardware stack levels required when called:   11
 This function calls:
		Nothing
 This function is called by:
		_SYSTEM_Initialize
 This function uses a non-reentrant model


 *************** function _I2C2_Initialize *****************
 Defined at:
		line 199 in file "mcc_generated_files/i2c2.c"
 Parameters:    Size  Location     Type
		None
 Auto vars:     Size  Location     Type
		None
 Return value:  Size  Location     Type
                  1    wreg      void 
 Registers used:
		wreg, status,2, status,0
 Tracked objects:
		On entry : 
		On exit  : 
		Unchanged: 
 Data sizes:     COMRAM   BANK0   BANK1   BANK2   BANK3   BANK4   BANK5   BANK6   BANK7   BANK8   BANK9  BANK10  BANK11  BANK12  BANK13  BANK14
      Params:         0       0       0       0       0       0       0       0       0       0       0       0       0       0       0       0
      Locals:         0       0       0       0       0       0       0       0       0       0       0       0       0       0       0       0
      Temps:          0       0       0       0       0       0       0       0       0       0       0       0       0       0       0       0
      Totals:         0       0       0       0       0       0       0       0       0       0       0       0       0       0       0       0
Total ram usage:        0 bytes
 Hardware stack levels used:    1
 Hardware stack levels required when called:   11
 This function calls:
		Nothing
 This function is called by:
		_SYSTEM_Initialize
 This function uses a non-reentrant model


 *************** function _FVR_Initialize *****************
 Defined at:
		line 58 in file "mcc_generated_files/fvr.c"
 Parameters:    Size  Location     Type
		None
 Auto vars:     Size  Location     Type
		None
 Return value:  Size  Location     Type
                  1    wreg      void 
 Registers used:
		wreg, status,2
 Tracked objects:
		On entry : 
		On exit  : 
		Unchanged: 
 Data sizes:     COMRAM   BANK0   BANK1   BANK2   BANK3   BANK4   BANK5   BANK6   BANK7   BANK8   BANK9  BANK10  BANK11  BANK12  BANK13  BANK14
      Params:         0       0       0       0       0       0       0       0       0       0       0       0       0       0       0       0
      Locals:         0       0       0       0       0       0       0       0       0       0       0       0       0       0       0       0
      Temps:          0       0       0       0       0       0       0       0       0       0       0       0       0       0       0       0
      Totals:         0       0       0       0       0       0       0       0       0       0       0       0       0       0       0       0
Total ram usage:        0 bytes
 Hardware stack levels used:    1
 Hardware stack levels required when called:   11
 This function calls:
		Nothing
 This function is called by:
		_SYSTEM_Initialize
 This function uses a non-reentrant model


 *************** function _EXT_INT_Initialize *****************
 Defined at:
		line 86 in file "mcc_generated_files/ext_int.c"
 Parameters:    Size  Location     Type
		None
 Auto vars:     Size  Location     Type
		None
 Return value:  Size  Location     Type
                  1    wreg      void 
 Registers used:
		wreg, status,2, status,0, cstack
 Tracked objects:
		On entry : 
		On exit  : 
		Unchanged: 
 Data sizes:     COMRAM   BANK0   BANK1   BANK2   BANK3   BANK4   BANK5   BANK6   BANK7   BANK8   BANK9  BANK10  BANK11  BANK12  BANK13  BANK14
      Params:         0       0       0       0       0       0       0       0       0       0       0       0       0       0       0       0
      Locals:         0       0       0       0       0       0       0       0       0       0       0       0       0       0       0       0
      Temps:          0       0       0       0       0       0       0       0       0       0       0       0       0       0       0       0
      Totals:         0       0       0       0       0       0       0       0       0       0       0       0       0       0       0       0
Total ram usage:        0 bytes
 Hardware stack levels used:    1
 Hardware stack levels required when called:   12
 This function calls:
		_INT1_SetInterruptHandler
		_INT2_SetInterruptHandler
 This function is called by:
		_SYSTEM_Initialize
 This function uses a non-reentrant model


 *************** function _INT2_SetInterruptHandler *****************
 Defined at:
		line 77 in file "mcc_generated_files/ext_int.c"
 Parameters:    Size  Location     Type
  InterruptHan    3    0[BANK2 ] PTR FTN()void 
		 -> rightCapTouchHandler(1), INT2_DefaultInterruptHandler(1), 
 Auto vars:     Size  Location     Type
		None
 Return value:  Size  Location     Type
                  1    wreg      void 
 Registers used:
		wreg, status,2, status,0
 Tracked objects:
		On entry : 
		On exit  : 
		Unchanged: 
 Data sizes:     COMRAM   BANK0   BANK1   BANK2   BANK3   BANK4   BANK5   BANK6   BANK7   BANK8   BANK9  BANK10  BANK11  BANK12  BANK13  BANK14
      Params:         0       0       0       3       0       0       0       0       0       0       0       0       0       0       0       0
      Locals:         0       0       0       0       0       0       0       0       0       0       0       0       0       0       0       0
      Temps:          0       0       0       0       0       0       0       0       0       0       0       0       0       0       0       0
      Totals:         0       0       0       3       0       0       0       0       0       0       0       0       0       0       0       0
Total ram usage:        3 bytes
 Hardware stack levels used:    1
 Hardware stack levels required when called:   11
 This function calls:
		Nothing
 This function is called by:
		_EXT_INT_Initialize
		_main
 This function uses a non-reentrant model


 *************** function _INT1_SetInterruptHandler *****************
 Defined at:
		line 51 in file "mcc_generated_files/ext_int.c"
 Parameters:    Size  Location     Type
  InterruptHan    3    0[BANK2 ] PTR FTN()void 
		 -> leftCapTouchHandler(1), INT1_DefaultInterruptHandler(1), 
 Auto vars:     Size  Location     Type
		None
 Return value:  Size  Location     Type
                  1    wreg      void 
 Registers used:
		wreg, status,2, status,0
 Tracked objects:
		On entry : 
		On exit  : 
		Unchanged: 
 Data sizes:     COMRAM   BANK0   BANK1   BANK2   BANK3   BANK4   BANK5   BANK6   BANK7   BANK8   BANK9  BANK10  BANK11  BANK12  BANK13  BANK14
      Params:         0       0       0       3       0       0       0       0       0       0       0       0       0       0       0       0
      Locals:         0       0       0       0       0       0       0       0       0       0       0       0       0       0       0       0
      Temps:          0       0       0       0       0       0       0       0       0       0       0       0       0       0       0       0
      Totals:         0       0       0       3       0       0       0       0       0       0       0       0       0       0       0       0
Total ram usage:        3 bytes
 Hardware stack levels used:    1
 Hardware stack levels required when called:   11
 This function calls:
		Nothing
 This function is called by:
		_EXT_INT_Initialize
		_main
 This function uses a non-reentrant model


 *************** function _EUSART2_Initialize *****************
 Defined at:
		line 79 in file "mcc_generated_files/eusart2.c"
 Parameters:    Size  Location     Type
		None
 Auto vars:     Size  Location     Type
		None
 Return value:  Size  Location     Type
                  1    wreg      void 
 Registers used:
		wreg, status,2, status,0, cstack
 Tracked objects:
		On entry : 
		On exit  : 
		Unchanged: 
 Data sizes:     COMRAM   BANK0   BANK1   BANK2   BANK3   BANK4   BANK5   BANK6   BANK7   BANK8   BANK9  BANK10  BANK11  BANK12  BANK13  BANK14
      Params:         0       0       0       0       0       0       0       0       0       0       0       0       0       0       0       0
      Locals:         0       0       0       0       0       0       0       0       0       0       0       0       0       0       0       0
      Temps:          0       0       0       0       0       0       0       0       0       0       0       0       0       0       0       0
      Totals:         0       0       0       0       0       0       0       0       0       0       0       0       0       0       0       0
Total ram usage:        0 bytes
 Hardware stack levels used:    1
 Hardware stack levels required when called:   12
 This function calls:
		_EUSART2_SetRxInterruptHandler
		_EUSART2_SetTxInterruptHandler
 This function is called by:
		_SYSTEM_Initialize
 This function uses a non-reentrant model


 *************** function _EUSART2_SetTxInterruptHandler *****************
 Defined at:
		line 264 in file "mcc_generated_files/eusart2.c"
 Parameters:    Size  Location     Type
  interruptHan    3    0[BANK2 ] PTR FTN()void 
		 -> EUSART2_Transmit_ISR(1), 
 Auto vars:     Size  Location     Type
		None
 Return value:  Size  Location     Type
                  1    wreg      void 
 Registers used:
		wreg, status,2, status,0
 Tracked objects:
		On entry : 
		On exit  : 
		Unchanged: 
 Data sizes:     COMRAM   BANK0   BANK1   BANK2   BANK3   BANK4   BANK5   BANK6   BANK7   BANK8   BANK9  BANK10  BANK11  BANK12  BANK13  BANK14
      Params:         0       0       0       3       0       0       0       0       0       0       0       0       0       0       0       0
      Locals:         0       0       0       0       0       0       0       0       0       0       0       0       0       0       0       0
      Temps:          0       0       0       0       0       0       0       0       0       0       0       0       0       0       0       0
      Totals:         0       0       0       3       0       0       0       0       0       0       0       0       0       0       0       0
Total ram usage:        3 bytes
 Hardware stack levels used:    1
 Hardware stack levels required when called:   11
 This function calls:
		Nothing
 This function is called by:
		_EUSART2_Initialize
 This function uses a non-reentrant model


 *************** function _EUSART2_SetRxInterruptHandler *****************
 Defined at:
		line 268 in file "mcc_generated_files/eusart2.c"
 Parameters:    Size  Location     Type
  interruptHan    3    0[BANK2 ] PTR FTN()void 
		 -> EUSART2_Receive_ISR(1), 
 Auto vars:     Size  Location     Type
		None
 Return value:  Size  Location     Type
                  1    wreg      void 
 Registers used:
		wreg, status,2, status,0
 Tracked objects:
		On entry : 
		On exit  : 
		Unchanged: 
 Data sizes:     COMRAM   BANK0   BANK1   BANK2   BANK3   BANK4   BANK5   BANK6   BANK7   BANK8   BANK9  BANK10  BANK11  BANK12  BANK13  BANK14
      Params:         0       0       0       3       0       0       0       0       0       0       0       0       0       0       0       0
      Locals:         0       0       0       0       0       0       0       0       0       0       0       0       0       0       0       0
      Temps:          0       0       0       0       0       0       0       0       0       0       0       0       0       0       0       0
      Totals:         0       0       0       3       0       0       0       0       0       0       0       0       0       0       0       0
Total ram usage:        3 bytes
 Hardware stack levels used:    1
 Hardware stack levels required when called:   11
 This function calls:
		Nothing
 This function is called by:
		_EUSART2_Initialize
 This function uses a non-reentrant model


 *************** function _CCP2_Initialize *****************
 Defined at:
		line 61 in file "mcc_generated_files/ccp2.c"
 Parameters:    Size  Location     Type
		None
 Auto vars:     Size  Location     Type
		None
 Return value:  Size  Location     Type
                  1    wreg      void 
 Registers used:
		wreg, status,2
 Tracked objects:
		On entry : 
		On exit  : 
		Unchanged: 
 Data sizes:     COMRAM   BANK0   BANK1   BANK2   BANK3   BANK4   BANK5   BANK6   BANK7   BANK8   BANK9  BANK10  BANK11  BANK12  BANK13  BANK14
      Params:         0       0       0       0       0       0       0       0       0       0       0       0       0       0       0       0
      Locals:         0       0       0       0       0       0       0       0       0       0       0       0       0       0       0       0
      Temps:          0       0       0       0       0       0       0       0       0       0       0       0       0       0       0       0
      Totals:         0       0       0       0       0       0       0       0       0       0       0       0       0       0       0       0
Total ram usage:        0 bytes
 Hardware stack levels used:    1
 Hardware stack levels required when called:   11
 This function calls:
		Nothing
 This function is called by:
		_SYSTEM_Initialize
 This function uses a non-reentrant model


 *************** function _ADCC_Initialize *****************
 Defined at:
		line 63 in file "mcc_generated_files/adcc.c"
 Parameters:    Size  Location     Type
		None
 Auto vars:     Size  Location     Type
		None
 Return value:  Size  Location     Type
                  1    wreg      void 
 Registers used:
		wreg, status,2, status,0, cstack
 Tracked objects:
		On entry : 
		On exit  : 
		Unchanged: 
 Data sizes:     COMRAM   BANK0   BANK1   BANK2   BANK3   BANK4   BANK5   BANK6   BANK7   BANK8   BANK9  BANK10  BANK11  BANK12  BANK13  BANK14
      Params:         0       0       0       0       0       0       0       0       0       0       0       0       0       0       0       0
      Locals:         0       0       0       0       0       0       0       0       0       0       0       0       0       0       0       0
      Temps:          0       0       0       0       0       0       0       0       0       0       0       0       0       0       0       0
      Totals:         0       0       0       0       0       0       0       0       0       0       0       0       0       0       0       0
Total ram usage:        0 bytes
 Hardware stack levels used:    1
 Hardware stack levels required when called:   12
 This function calls:
		_ADCC_SetADTIInterruptHandler
 This function is called by:
		_SYSTEM_Initialize
 This function uses a non-reentrant model


 *************** function _ADCC_SetADTIInterruptHandler *****************
 Defined at:
		line 307 in file "mcc_generated_files/adcc.c"
 Parameters:    Size  Location     Type
  InterruptHan    3    0[BANK2 ] PTR FTN()void 
		 -> ADC_PostProcessingHandler(1), ADCC_DefaultInterruptHandler(1), 
 Auto vars:     Size  Location     Type
		None
 Return value:  Size  Location     Type
                  1    wreg      void 
 Registers used:
		wreg, status,2, status,0
 Tracked objects:
		On entry : 
		On exit  : 
		Unchanged: 
 Data sizes:     COMRAM   BANK0   BANK1   BANK2   BANK3   BANK4   BANK5   BANK6   BANK7   BANK8   BANK9  BANK10  BANK11  BANK12  BANK13  BANK14
      Params:         0       0       0       3       0       0       0       0       0       0       0       0       0       0       0       0
      Locals:         0       0       0       0       0       0       0       0       0       0       0       0       0       0       0       0
      Temps:          0       0       0       0       0       0       0       0       0       0       0       0       0       0       0       0
      Totals:         0       0       0       3       0       0       0       0       0       0       0       0       0       0       0       0
Total ram usage:        3 bytes
 Hardware stack levels used:    1
 Hardware stack levels required when called:   11
 This function calls:
		Nothing
 This function is called by:
		_ADCC_Initialize
		_main
 This function uses a non-reentrant model


 *************** function _OLED_updateHandler *****************
 Defined at:
		line 322 in file "oled.c"
 Parameters:    Size  Location     Type
		None
 Auto vars:     Size  Location     Type
  rev_id_str     17   17[BANK3 ] unsigned char [17]
  dev_id_str     17    0[BANK3 ] unsigned char [17]
 Return value:  Size  Location     Type
                  1    wreg      void 
 Registers used:
		wreg, fsr0l, fsr0h, fsr2l, fsr2h, status,2, status,0, pclath, tosl, tblptrl, tblptrh, tblptru, prodl, prodh, cstack
 Tracked objects:
		On entry : 
		On exit  : 
		Unchanged: 
 Data sizes:     COMRAM   BANK0   BANK1   BANK2   BANK3   BANK4   BANK5   BANK6   BANK7   BANK8   BANK9  BANK10  BANK11  BANK12  BANK13  BANK14
      Params:         0       0       0       0       0       0       0       0       0       0       0       0       0       0       0       0
      Locals:         0       0       0       0      34       0       0       0       0       0       0       0       0       0       0       0
      Temps:          0       0       0       2       0       0       0       0       0       0       0       0       0       0       0       0
      Totals:         0       0       0       2      34       0       0       0       0       0       0       0       0       0       0       0
Total ram usage:       36 bytes
 Hardware stack levels used:    1
 Hardware stack levels required when called:   17
 This function calls:
		_OLED_UpdateFromRAMBuffer
		___fldiv
		_getCauseOfResetStringSmall
		_getDaysFromOnTime
		_getDeviceID
		_getHoursFromOnTime
		_getMajorRevisionID
		_getMinorRevisionID
		_getMinutesFromOnTime
		_getNXQChargeStateStringCaps
		_getSecondsFromOnTime
		_getYearsFromOnTime
		_sprintf
		_strcpy
 This function is called by:
		_main
 This function uses a non-reentrant model


 *************** function _strcpy *****************
 Defined at:
		line 8 in file "C:\Program Files (x86)\Microchip\xc8\v2.05\pic\sources\c90\common\strcpy.c"
 Parameters:    Size  Location     Type
  to              2    3[BANK2 ] PTR unsigned char 
		 -> OLED_RAM_Buffer(68), 
  from            2    5[BANK2 ] PTR const unsigned char 
		 -> STR_175(12), STR_174(13), STR_173(16), STR_172(14), 
		 -> STR_171(15), STR_170(16), STR_169(10), STR_168(16), 
		 -> STR_166(13), STR_164(11), STR_163(2), STR_162(2), 
		 -> STR_161(16), STR_160(2), STR_159(2), STR_157(2), 
		 -> STR_156(2), STR_155(13), STR_154(2), STR_148(16), 
		 -> STR_147(2), STR_146(2), STR_144(2), STR_132(14), 
		 -> STR_131(2), STR_130(2), STR_128(11), STR_127(13), 
		 -> STR_126(2), STR_125(2), STR_124(7), STR_123(11), 
		 -> STR_122(14), STR_121(2), STR_120(2), STR_118(12), 
		 -> STR_117(2), STR_116(2), STR_114(14), STR_113(2), 
		 -> STR_112(2), STR_110(10), STR_109(2), STR_108(2), 
		 -> STR_106(9), STR_105(2), STR_104(2), STR_102(12), 
		 -> STR_101(2), STR_100(2), STR_98(14), STR_97(2), 
		 -> STR_96(2), STR_94(13), STR_93(2), STR_92(2), 
		 -> STR_90(12), STR_89(2), STR_88(2), STR_86(14), 
		 -> STR_85(2), STR_84(2), STR_82(13), STR_81(2), 
		 -> STR_80(2), STR_78(14), STR_77(2), STR_76(2), 
		 -> STR_75(15), STR_74(16), STR_73(14), STR_72(11), 
		 -> STR_71(14), STR_70(15), STR_69(16), STR_68(10), 
		 -> STR_67(16), OLED_updateHandler@rev_id_str(17), STR_65(13), OLED_updateHandler@dev_id_str(17), 
		 -> STR_63(11), STR_62(16), STR_61(16), STR_60(14), 
		 -> STR_40(10), STR_39(11), STR_38(11), STR_37(15), 
		 -> STR_36(11), STR_35(10), STR_34(11), STR_33(10), 
		 -> STR_32(10), STR_31(10), STR_20(10), STR_19(6), 
		 -> STR_18(14), STR_17(9), STR_16(5), 
 Auto vars:     Size  Location     Type
  cp              2    7[BANK2 ] PTR unsigned char 
		 -> OLED_RAM_Buffer(68), 
 Return value:  Size  Location     Type
                  2    3[BANK2 ] PTR unsigned char 
 Registers used:
		wreg, fsr0l, fsr0h, fsr2l, fsr2h, status,2, status,0, tblptrl, tblptrh, tblptru
 Tracked objects:
		On entry : 
		On exit  : 
		Unchanged: 
 Data sizes:     COMRAM   BANK0   BANK1   BANK2   BANK3   BANK4   BANK5   BANK6   BANK7   BANK8   BANK9  BANK10  BANK11  BANK12  BANK13  BANK14
      Params:         0       0       0       4       0       0       0       0       0       0       0       0       0       0       0       0
      Locals:         0       0       0       2       0       0       0       0       0       0       0       0       0       0       0       0
      Temps:          0       0       0       0       0       0       0       0       0       0       0       0       0       0       0       0
      Totals:         0       0       0       6       0       0       0       0       0       0       0       0       0       0       0       0
Total ram usage:        6 bytes
 Hardware stack levels used:    1
 Hardware stack levels required when called:   11
 This function calls:
		Nothing
 This function is called by:
		_OLED_updateHandler
 This function uses a non-reentrant model


 *************** function _sprintf *****************
 Defined at:
		line 13 in file "C:\Program Files (x86)\Microchip\xc8\v2.05\pic\sources\c90\common\sprintf.c"
 Parameters:    Size  Location     Type
  wh              2  132[BANK2 ] PTR unsigned char 
		 -> ftoa@buf(17), OLED_updateHandler@rev_id_str(17), OLED_updateHandler@dev_id_str(17), OLED_RAM_Buffer(68), 
		 -> getStringSecondsAsTime@buff(20), 
  f               2  134[BANK2 ] PTR const unsigned char 
		 -> STR_333(11), STR_167(7), STR_165(5), STR_158(11), 
		 -> STR_153(11), STR_152(11), STR_151(11), STR_150(11), 
		 -> STR_149(9), STR_145(11), STR_143(11), STR_142(11), 
		 -> STR_141(11), STR_140(11), STR_139(9), STR_138(11), 
		 -> STR_137(9), STR_136(8), STR_135(9), STR_134(8), 
		 -> STR_133(9), STR_129(9), STR_119(7), STR_115(7), 
		 -> STR_111(7), STR_107(7), STR_103(8), STR_99(7), 
		 -> STR_95(7), STR_91(7), STR_87(7), STR_83(7), 
		 -> STR_79(7), STR_66(7), STR_64(5), STR_57(11), 
		 -> STR_56(10), STR_55(13), STR_54(12), STR_53(11), 
		 -> STR_52(10), STR_51(10), STR_50(9), STR_49(11), 
		 -> STR_48(10), 
 Auto vars:     Size  Location     Type
  pb              5  146[BANK2 ] struct __prbuf
  ap              2  144[BANK2 ] PTR void [1]
		 -> ?_sprintf(2), ?_printf(2), 
 Return value:  Size  Location     Type
                  2  132[BANK2 ] int 
 Registers used:
		wreg, fsr0l, fsr0h, fsr2l, fsr2h, status,2, status,0, pclath, tosl, tblptrl, tblptrh, tblptru, prodl, prodh, cstack
 Tracked objects:
		On entry : 
		On exit  : 
		Unchanged: 
 Data sizes:     COMRAM   BANK0   BANK1   BANK2   BANK3   BANK4   BANK5   BANK6   BANK7   BANK8   BANK9  BANK10  BANK11  BANK12  BANK13  BANK14
      Params:         0       0       0      12       0       0       0       0       0       0       0       0       0       0       0       0
      Locals:         0       0       0       7       0       0       0       0       0       0       0       0       0       0       0       0
      Temps:          0       0       0       0       0       0       0       0       0       0       0       0       0       0       0       0
      Totals:         0       0       0      19       0       0       0       0       0       0       0       0       0       0       0       0
Total ram usage:       19 bytes
 Hardware stack levels used:    1
 Hardware stack levels required when called:   14
 This function calls:
		__doprnt
 This function is called by:
		_getStringSecondsAsTime
		_OLED_updateHandler
		_ftoa
 This function uses a non-reentrant model


 *************** function __doprnt *****************
 Defined at:
		line 466 in file "C:\Program Files (x86)\Microchip\xc8\v2.05\pic\sources\c90\common\doprnt.c"
 Parameters:    Size  Location     Type
  pb              2   76[BANK2 ] PTR struct __prbuf
		 -> sprintf@pb(5), printf@pb(5), 
  f               2   78[BANK2 ] PTR const unsigned char 
		 -> STR_333(11), STR_330(60), STR_329(24), STR_328(24), 
		 -> STR_327(24), STR_326(27), STR_325(20), STR_324(35), 
		 -> STR_323(34), STR_322(37), STR_321(34), STR_320(36), 
		 -> STR_319(35), STR_318(33), STR_317(35), STR_316(20), 
		 -> STR_315(23), STR_314(20), STR_313(22), STR_312(21), 
		 -> STR_311(19), STR_310(21), STR_309(27), STR_308(18), 
		 -> STR_307(11), terminalTextAttributes@print_string(16), STR_277(4), STR_276(4), 
		 -> STR_275(4), STR_274(4), STR_273(5), STR_272(45), 
		 -> STR_271(88), STR_270(37), STR_269(30), STR_268(46), 
		 -> STR_267(39), STR_266(62), STR_265(57), STR_264(2233), 
		 -> STR_263(22), STR_261(49), STR_260(49), STR_258(36), 
		 -> STR_257(54), STR_256(31), STR_254(55), STR_253(32), 
		 -> STR_251(56), STR_250(34), STR_248(42), STR_246(48), 
		 -> STR_244(47), STR_242(41), STR_240(50), STR_238(51), 
		 -> STR_236(31), STR_234(88), STR_232(46), STR_230(44), 
		 -> STR_228(54), STR_226(36), STR_224(35), STR_222(28), 
		 -> STR_221(60), STR_220(26), STR_219(27), STR_218(59), 
		 -> STR_217(29), STR_216(31), STR_215(33), STR_214(36), 
		 -> STR_213(24), STR_212(42), STR_211(27), STR_210(48), 
		 -> STR_209(10), STR_208(24), STR_207(46), STR_206(25), 
		 -> STR_204(24), STR_202(23), STR_200(23), STR_198(40), 
		 -> STR_196(39), STR_194(51), STR_192(56), STR_191(64), 
		 -> STR_189(59), STR_187(44), STR_185(54), STR_183(52), 
		 -> STR_181(4), STR_180(5), STR_178(4), STR_177(5), 
		 -> STR_167(7), STR_165(5), STR_158(11), STR_153(11), 
		 -> STR_152(11), STR_151(11), STR_150(11), STR_149(9), 
		 -> STR_145(11), STR_143(11), STR_142(11), STR_141(11), 
		 -> STR_140(11), STR_139(9), STR_138(11), STR_137(9), 
		 -> STR_136(8), STR_135(9), STR_134(8), STR_133(9), 
		 -> STR_129(9), STR_119(7), STR_115(7), STR_111(7), 
		 -> STR_107(7), STR_103(8), STR_99(7), STR_95(7), 
		 -> STR_91(7), STR_87(7), STR_83(7), STR_79(7), 
		 -> STR_66(7), STR_64(5), STR_57(11), STR_56(10), 
		 -> STR_55(13), STR_54(12), STR_53(11), STR_52(10), 
		 -> STR_51(10), STR_50(9), STR_49(11), STR_48(10), 
		 -> STR_10(47), STR_9(30), STR_8(46), STR_7(39), 
		 -> STR_6(62), STR_5(57), STR_4(39), STR_3(44), 
		 -> STR_2(52), STR_1(4), 
  ap              2   80[BANK2 ] PTR PTR void 
		 -> sprintf@ap(2), printf@ap(2), 
 Auto vars:     Size  Location     Type
  idx             1   90[BANK2 ] unsigned char 
  val             4  121[BANK2 ] unsigned long 
  fval            4  117[BANK2 ] unsigned long 
  tmpval          4  113[BANK2 ] struct .
  flag            2  129[BANK2 ] unsigned short 
  prec            2  127[BANK2 ] int 
  width           2  125[BANK2 ] int 
  eexp            2  111[BANK2 ] int 
  len             2  109[BANK2 ] unsigned int 
  cp              2  107[BANK2 ] PTR const unsigned char 
		 -> ?_sprintf(2), ?_printf(2), ftoa@buf(17), STR_331(7), 
		 -> _doprnt@c(1), freqMeasConvert@qi_period(4), OLED_updateHandler@rev_id_str(17), OLED_updateHandler@dev_id_str(17), 
		 -> OLED_RAM_Buffer(68), getStringSecondsAsTime@buff(20), getStringSecondsAsTime@return_string(40), STR_47(10), 
		 -> STR_46(13), STR_45(13), STR_44(12), STR_43(12), 
		 -> STR_42(13), STR_41(12), STR_30(16), STR_29(22), 
		 -> STR_28(21), STR_27(27), STR_26(41), STR_25(32), 
		 -> STR_24(19), STR_23(16), STR_22(15), STR_21(16), 
		 -> STR_15(10), STR_14(6), STR_13(14), STR_12(9), 
		 -> STR_11(5), LM73Convert@Ambient_Conv(2), LM73Convert@POS5_Conv(2), LM73Convert@QI_Conv(2), 
		 -> NULL(0), 
  c               1  131[BANK2 ] unsigned char 
  d               1    0        unsigned char 
 Return value:  Size  Location     Type
                  2   76[BANK2 ] int 
 Registers used:
		wreg, fsr0l, fsr0h, fsr2l, fsr2h, status,2, status,0, pclath, tosl, tblptrl, tblptrh, tblptru, prodl, prodh, cstack
 Tracked objects:
		On entry : 
		On exit  : 
		Unchanged: 
 Data sizes:     COMRAM   BANK0   BANK1   BANK2   BANK3   BANK4   BANK5   BANK6   BANK7   BANK8   BANK9  BANK10  BANK11  BANK12  BANK13  BANK14
      Params:         0       0       0       6       0       0       0       0       0       0       0       0       0       0       0       0
      Locals:         0       0       0      46       0       0       0       0       0       0       0       0       0       0       0       0
      Temps:          0       0       0       4       0       0       0       0       0       0       0       0       0       0       0       0
      Totals:         0       0       0      56       0       0       0       0       0       0       0       0       0       0       0       0
Total ram usage:       56 bytes
 Hardware stack levels used:    1
 Hardware stack levels required when called:   13
 This function calls:
		Absolute function
		___awdiv
		___fladd
		___fleq
		___flge
		___flmul
		___flneg
		___flsub
		___fltol
		___lldiv
		___llmod
		___wmul
		___xxtofl
		__div_to_l_
		__tdiv_to_l_
		_fround
		_isdigit
		_putch
		_scale
 This function is called by:
		_printf
		_sprintf
 This function uses a non-reentrant model


 *************** function _scale *****************
 Defined at:
		line 433 in file "C:\Program Files (x86)\Microchip\xc8\v2.05\pic\sources\c90\common\doprnt.c"
 Parameters:    Size  Location     Type
  scl             1    wreg     char 
 Auto vars:     Size  Location     Type
  scl             1   47[BANK2 ] char 
 Return value:  Size  Location     Type
                  4   39[BANK2 ] char 
 Registers used:
		wreg, status,2, status,0, tblptrl, tblptrh, tblptru, prodl, prodh, cstack
 Tracked objects:
		On entry : 
		On exit  : 
		Unchanged: 
 Data sizes:     COMRAM   BANK0   BANK1   BANK2   BANK3   BANK4   BANK5   BANK6   BANK7   BANK8   BANK9  BANK10  BANK11  BANK12  BANK13  BANK14
      Params:         0       0       0       4       0       0       0       0       0       0       0       0       0       0       0       0
      Locals:         0       0       0       5       0       0       0       0       0       0       0       0       0       0       0       0
      Temps:          0       0       0       0       0       0       0       0       0       0       0       0       0       0       0       0
      Totals:         0       0       0       9       0       0       0       0       0       0       0       0       0       0       0       0
Total ram usage:        9 bytes
 Hardware stack levels used:    1
 Hardware stack levels required when called:   12
 This function calls:
		___awdiv
		___awmod
		___flmul
 This function is called by:
		__doprnt
 This function uses a non-reentrant model


 *************** function ___awmod *****************
 Defined at:
		line 7 in file "C:\Program Files (x86)\Microchip\xc8\v2.05\pic\sources\c90\common\awmod.c"
 Parameters:    Size  Location     Type
  dividend        2    0[BANK2 ] int 
  divisor         2    2[BANK2 ] int 
 Auto vars:     Size  Location     Type
  sign            1    5[BANK2 ] unsigned char 
  counter         1    4[BANK2 ] unsigned char 
 Return value:  Size  Location     Type
                  2    0[BANK2 ] int 
 Registers used:
		wreg, status,2, status,0
 Tracked objects:
		On entry : 
		On exit  : 
		Unchanged: 
 Data sizes:     COMRAM   BANK0   BANK1   BANK2   BANK3   BANK4   BANK5   BANK6   BANK7   BANK8   BANK9  BANK10  BANK11  BANK12  BANK13  BANK14
      Params:         0       0       0       4       0       0       0       0       0       0       0       0       0       0       0       0
      Locals:         0       0       0       2       0       0       0       0       0       0       0       0       0       0       0       0
      Temps:          0       0       0       0       0       0       0       0       0       0       0       0       0       0       0       0
      Totals:         0       0       0       6       0       0       0       0       0       0       0       0       0       0       0       0
Total ram usage:        6 bytes
 Hardware stack levels used:    1
 Hardware stack levels required when called:   11
 This function calls:
		Nothing
 This function is called by:
		_scale
 This function uses a non-reentrant model


 *************** function ___awdiv *****************
 Defined at:
		line 7 in file "C:\Program Files (x86)\Microchip\xc8\v2.05\pic\sources\c90\common\awdiv.c"
 Parameters:    Size  Location     Type
  dividend        2    6[BANK2 ] int 
  divisor         2    8[BANK2 ] int 
 Auto vars:     Size  Location     Type
  quotient        2   12[BANK2 ] int 
  sign            1   11[BANK2 ] unsigned char 
  counter         1   10[BANK2 ] unsigned char 
 Return value:  Size  Location     Type
                  2    6[BANK2 ] int 
 Registers used:
		wreg, status,2, status,0
 Tracked objects:
		On entry : 
		On exit  : 
		Unchanged: 
 Data sizes:     COMRAM   BANK0   BANK1   BANK2   BANK3   BANK4   BANK5   BANK6   BANK7   BANK8   BANK9  BANK10  BANK11  BANK12  BANK13  BANK14
      Params:         0       0       0       4       0       0       0       0       0       0       0       0       0       0       0       0
      Locals:         0       0       0       4       0       0       0       0       0       0       0       0       0       0       0       0
      Temps:          0       0       0       0       0       0       0       0       0       0       0       0       0       0       0       0
      Totals:         0       0       0       8       0       0       0       0       0       0       0       0       0       0       0       0
Total ram usage:        8 bytes
 Hardware stack levels used:    1
 Hardware stack levels required when called:   11
 This function calls:
		Nothing
 This function is called by:
		_scale
		__doprnt
 This function uses a non-reentrant model


 *************** function _putch *****************
 Defined at:
		line 182 in file "mcc_generated_files/eusart2.c"
 Parameters:    Size  Location     Type
  txData          1    wreg     unsigned char 
 Auto vars:     Size  Location     Type
  txData          1    1[BANK2 ] unsigned char 
 Return value:  Size  Location     Type
                  1    wreg      void 
 Registers used:
		wreg, fsr2l, fsr2h, status,2, status,0, cstack
 Tracked objects:
		On entry : 
		On exit  : 
		Unchanged: 
 Data sizes:     COMRAM   BANK0   BANK1   BANK2   BANK3   BANK4   BANK5   BANK6   BANK7   BANK8   BANK9  BANK10  BANK11  BANK12  BANK13  BANK14
      Params:         0       0       0       0       0       0       0       0       0       0       0       0       0       0       0       0
      Locals:         0       0       0       1       0       0       0       0       0       0       0       0       0       0       0       0
      Temps:          0       0       0       0       0       0       0       0       0       0       0       0       0       0       0       0
      Totals:         0       0       0       1       0       0       0       0       0       0       0       0       0       0       0       0
Total ram usage:        1 bytes
 Hardware stack levels used:    1
 Hardware stack levels required when called:   12
 This function calls:
		_EUSART2_Write
 This function is called by:
		_printf
		__doprnt
		i2__doprnt
 This function uses a non-reentrant model


 *************** function _EUSART2_Write *****************
 Defined at:
		line 153 in file "mcc_generated_files/eusart2.c"
 Parameters:    Size  Location     Type
  txData          1    wreg     unsigned char 
 Auto vars:     Size  Location     Type
  txData          1    0[BANK2 ] unsigned char 
 Return value:  Size  Location     Type
                  1    wreg      void 
 Registers used:
		wreg, fsr2l, fsr2h, status,2, status,0
 Tracked objects:
		On entry : 
		On exit  : 
		Unchanged: 
 Data sizes:     COMRAM   BANK0   BANK1   BANK2   BANK3   BANK4   BANK5   BANK6   BANK7   BANK8   BANK9  BANK10  BANK11  BANK12  BANK13  BANK14
      Params:         0       0       0       0       0       0       0       0       0       0       0       0       0       0       0       0
      Locals:         0       0       0       1       0       0       0       0       0       0       0       0       0       0       0       0
      Temps:          0       0       0       0       0       0       0       0       0       0       0       0       0       0       0       0
      Totals:         0       0       0       1       0       0       0       0       0       0       0       0       0       0       0       0
Total ram usage:        1 bytes
 Hardware stack levels used:    1
 Hardware stack levels required when called:   11
 This function calls:
		Nothing
 This function is called by:
		_putch
 This function uses a non-reentrant model


 *************** function _isdigit *****************
 Defined at:
		line 8 in file "C:\Program Files (x86)\Microchip\xc8\v2.05\pic\sources\c90\common\isdigit.c"
 Parameters:    Size  Location     Type
  c               1    wreg     unsigned char 
 Auto vars:     Size  Location     Type
  c               1    2[BANK2 ] unsigned char 
 Return value:  Size  Location     Type
		None               void
 Registers used:
		wreg, status,2, status,0
 Tracked objects:
		On entry : 
		On exit  : 
		Unchanged: 
 Data sizes:     COMRAM   BANK0   BANK1   BANK2   BANK3   BANK4   BANK5   BANK6   BANK7   BANK8   BANK9  BANK10  BANK11  BANK12  BANK13  BANK14
      Params:         0       0       0       0       0       0       0       0       0       0       0       0       0       0       0       0
      Locals:         0       0       0       2       0       0       0       0       0       0       0       0       0       0       0       0
      Temps:          0       0       0       1       0       0       0       0       0       0       0       0       0       0       0       0
      Totals:         0       0       0       3       0       0       0       0       0       0       0       0       0       0       0       0
Total ram usage:        3 bytes
 Hardware stack levels used:    1
 Hardware stack levels required when called:   11
 This function calls:
		Nothing
 This function is called by:
		__doprnt
 This function uses a non-reentrant model


 *************** function _fround *****************
 Defined at:
		line 417 in file "C:\Program Files (x86)\Microchip\xc8\v2.05\pic\sources\c90\common\doprnt.c"
 Parameters:    Size  Location     Type
  prec            1    wreg     unsigned char 
 Auto vars:     Size  Location     Type
  prec            1   51[BANK2 ] unsigned char 
 Return value:  Size  Location     Type
                  4   39[BANK2 ] unsigned char 
 Registers used:
		wreg, status,2, status,0, tblptrl, tblptrh, tblptru, prodl, prodh, cstack
 Tracked objects:
		On entry : 
		On exit  : 
		Unchanged: 
 Data sizes:     COMRAM   BANK0   BANK1   BANK2   BANK3   BANK4   BANK5   BANK6   BANK7   BANK8   BANK9  BANK10  BANK11  BANK12  BANK13  BANK14
      Params:         0       0       0       4       0       0       0       0       0       0       0       0       0       0       0       0
      Locals:         0       0       0       9       0       0       0       0       0       0       0       0       0       0       0       0
      Temps:          0       0       0       0       0       0       0       0       0       0       0       0       0       0       0       0
      Totals:         0       0       0      13       0       0       0       0       0       0       0       0       0       0       0       0
Total ram usage:       13 bytes
 Hardware stack levels used:    1
 Hardware stack levels required when called:   12
 This function calls:
		___flmul
		___lwdiv
		___lwmod
 This function is called by:
		__doprnt
 This function uses a non-reentrant model


 *************** function ___lwmod *****************
 Defined at:
		line 7 in file "C:\Program Files (x86)\Microchip\xc8\v2.05\pic\sources\c90\common\lwmod.c"
 Parameters:    Size  Location     Type
  dividend        2    0[BANK2 ] unsigned int 
  divisor         2    2[BANK2 ] unsigned int 
 Auto vars:     Size  Location     Type
  counter         1    4[BANK2 ] unsigned char 
 Return value:  Size  Location     Type
                  2    0[BANK2 ] unsigned int 
 Registers used:
		wreg, status,2, status,0
 Tracked objects:
		On entry : 
		On exit  : 
		Unchanged: 
 Data sizes:     COMRAM   BANK0   BANK1   BANK2   BANK3   BANK4   BANK5   BANK6   BANK7   BANK8   BANK9  BANK10  BANK11  BANK12  BANK13  BANK14
      Params:         0       0       0       4       0       0       0       0       0       0       0       0       0       0       0       0
      Locals:         0       0       0       1       0       0       0       0       0       0       0       0       0       0       0       0
      Temps:          0       0       0       0       0       0       0       0       0       0       0       0       0       0       0       0
      Totals:         0       0       0       5       0       0       0       0       0       0       0       0       0       0       0       0
Total ram usage:        5 bytes
 Hardware stack levels used:    1
 Hardware stack levels required when called:   11
 This function calls:
		Nothing
 This function is called by:
		_fround
 This function uses a non-reentrant model


 *************** function ___lwdiv *****************
 Defined at:
		line 7 in file "C:\Program Files (x86)\Microchip\xc8\v2.05\pic\sources\c90\common\lwdiv.c"
 Parameters:    Size  Location     Type
  dividend        2    5[BANK2 ] unsigned int 
  divisor         2    7[BANK2 ] unsigned int 
 Auto vars:     Size  Location     Type
  quotient        2   10[BANK2 ] unsigned int 
  counter         1    9[BANK2 ] unsigned char 
 Return value:  Size  Location     Type
                  2    5[BANK2 ] unsigned int 
 Registers used:
		wreg, status,2, status,0
 Tracked objects:
		On entry : 
		On exit  : 
		Unchanged: 
 Data sizes:     COMRAM   BANK0   BANK1   BANK2   BANK3   BANK4   BANK5   BANK6   BANK7   BANK8   BANK9  BANK10  BANK11  BANK12  BANK13  BANK14
      Params:         0       0       0       4       0       0       0       0       0       0       0       0       0       0       0       0
      Locals:         0       0       0       3       0       0       0       0       0       0       0       0       0       0       0       0
      Temps:          0       0       0       0       0       0       0       0       0       0       0       0       0       0       0       0
      Totals:         0       0       0       7       0       0       0       0       0       0       0       0       0       0       0       0
Total ram usage:        7 bytes
 Hardware stack levels used:    1
 Hardware stack levels required when called:   11
 This function calls:
		Nothing
 This function is called by:
		_fround
 This function uses a non-reentrant model


 *************** function __tdiv_to_l_ *****************
 Defined at:
		line 60 in file "C:\Program Files (x86)\Microchip\xc8\v2.05\pic\sources\c90\common\ftdivl.c"
 Parameters:    Size  Location     Type
  f1              4    0[BANK2 ] float 
  f2              4    4[BANK2 ] float 
 Auto vars:     Size  Location     Type
  quot            4   11[BANK2 ] unsigned long 
  exp1            1   16[BANK2 ] unsigned char 
  cntr            1   15[BANK2 ] unsigned char 
 Return value:  Size  Location     Type
                  4    0[BANK2 ] unsigned long 
 Registers used:
		wreg, status,2, status,0
 Tracked objects:
		On entry : 
		On exit  : 
		Unchanged: 
 Data sizes:     COMRAM   BANK0   BANK1   BANK2   BANK3   BANK4   BANK5   BANK6   BANK7   BANK8   BANK9  BANK10  BANK11  BANK12  BANK13  BANK14
      Params:         0       0       0       8       0       0       0       0       0       0       0       0       0       0       0       0
      Locals:         0       0       0       6       0       0       0       0       0       0       0       0       0       0       0       0
      Temps:          0       0       0       3       0       0       0       0       0       0       0       0       0       0       0       0
      Totals:         0       0       0      17       0       0       0       0       0       0       0       0       0       0       0       0
Total ram usage:       17 bytes
 Hardware stack levels used:    1
 Hardware stack levels required when called:   11
 This function calls:
		Nothing
 This function is called by:
		__doprnt
 This function uses a non-reentrant model


 *************** function __div_to_l_ *****************
 Defined at:
		line 60 in file "C:\Program Files (x86)\Microchip\xc8\v2.05\pic\sources\c90\common\fldivl.c"
 Parameters:    Size  Location     Type
  f1              4    0[BANK2 ] unsigned long 
  f2              4    4[BANK2 ] unsigned long 
 Auto vars:     Size  Location     Type
  quot            4    8[BANK2 ] unsigned long 
  exp1            1   13[BANK2 ] unsigned char 
  cntr            1   12[BANK2 ] unsigned char 
 Return value:  Size  Location     Type
                  4    0[BANK2 ] unsigned long 
 Registers used:
		wreg, status,2, status,0
 Tracked objects:
		On entry : 
		On exit  : 
		Unchanged: 
 Data sizes:     COMRAM   BANK0   BANK1   BANK2   BANK3   BANK4   BANK5   BANK6   BANK7   BANK8   BANK9  BANK10  BANK11  BANK12  BANK13  BANK14
      Params:         0       0       0       8       0       0       0       0       0       0       0       0       0       0       0       0
      Locals:         0       0       0       6       0       0       0       0       0       0       0       0       0       0       0       0
      Temps:          0       0       0       0       0       0       0       0       0       0       0       0       0       0       0       0
      Totals:         0       0       0      14       0       0       0       0       0       0       0       0       0       0       0       0
Total ram usage:       14 bytes
 Hardware stack levels used:    1
 Hardware stack levels required when called:   11
 This function calls:
		Nothing
 This function is called by:
		__doprnt
 This function uses a non-reentrant model


 *************** function ___llmod *****************
 Defined at:
		line 7 in file "C:\Program Files (x86)\Microchip\xc8\v2.05\pic\sources\c90\common\llmod.c"
 Parameters:    Size  Location     Type
  dividend        4   13[BANK2 ] unsigned long 
  divisor         4   17[BANK2 ] unsigned long 
 Auto vars:     Size  Location     Type
  counter         1   21[BANK2 ] unsigned char 
 Return value:  Size  Location     Type
                  4   13[BANK2 ] unsigned long 
 Registers used:
		wreg, status,2, status,0
 Tracked objects:
		On entry : 
		On exit  : 
		Unchanged: 
 Data sizes:     COMRAM   BANK0   BANK1   BANK2   BANK3   BANK4   BANK5   BANK6   BANK7   BANK8   BANK9  BANK10  BANK11  BANK12  BANK13  BANK14
      Params:         0       0       0       8       0       0       0       0       0       0       0       0       0       0       0       0
      Locals:         0       0       0       1       0       0       0       0       0       0       0       0       0       0       0       0
      Temps:          0       0       0       0       0       0       0       0       0       0       0       0       0       0       0       0
      Totals:         0       0       0       9       0       0       0       0       0       0       0       0       0       0       0       0
Total ram usage:        9 bytes
 Hardware stack levels used:    1
 Hardware stack levels required when called:   11
 This function calls:
		Nothing
 This function is called by:
		__doprnt
 This function uses a non-reentrant model


 *************** function ___fltol *****************
 Defined at:
		line 43 in file "C:\Program Files (x86)\Microchip\xc8\v2.05\pic\sources\c90\common\fltol.c"
 Parameters:    Size  Location     Type
  f1              4   48[BANK2 ] unsigned long 
 Auto vars:     Size  Location     Type
  exp1            1   57[BANK2 ] unsigned char 
  sign1           1   56[BANK2 ] unsigned char 
 Return value:  Size  Location     Type
                  4   48[BANK2 ] long 
 Registers used:
		wreg, status,2, status,0
 Tracked objects:
		On entry : 
		On exit  : 
		Unchanged: 
 Data sizes:     COMRAM   BANK0   BANK1   BANK2   BANK3   BANK4   BANK5   BANK6   BANK7   BANK8   BANK9  BANK10  BANK11  BANK12  BANK13  BANK14
      Params:         0       0       0       4       0       0       0       0       0       0       0       0       0       0       0       0
      Locals:         0       0       0       2       0       0       0       0       0       0       0       0       0       0       0       0
      Temps:          0       0       0       4       0       0       0       0       0       0       0       0       0       0       0       0
      Totals:         0       0       0      10       0       0       0       0       0       0       0       0       0       0       0       0
Total ram usage:       10 bytes
 Hardware stack levels used:    1
 Hardware stack levels required when called:   11
 This function calls:
		Nothing
 This function is called by:
		__doprnt
		_ftoa
 This function uses a non-reentrant model


 *************** function ___flsub *****************
 Defined at:
		line 245 in file "C:\Program Files (x86)\Microchip\xc8\v2.05\pic\sources\c90\common\sprcadd.c"
 Parameters:    Size  Location     Type
  b               4   68[BANK2 ] long 
  a               4   72[BANK2 ] long 
 Auto vars:     Size  Location     Type
		None
 Return value:  Size  Location     Type
                  4   68[BANK2 ] long 
 Registers used:
		wreg, status,2, status,0, cstack
 Tracked objects:
		On entry : 
		On exit  : 
		Unchanged: 
 Data sizes:     COMRAM   BANK0   BANK1   BANK2   BANK3   BANK4   BANK5   BANK6   BANK7   BANK8   BANK9  BANK10  BANK11  BANK12  BANK13  BANK14
      Params:         0       0       0       8       0       0       0       0       0       0       0       0       0       0       0       0
      Locals:         0       0       0       0       0       0       0       0       0       0       0       0       0       0       0       0
      Temps:          0       0       0       0       0       0       0       0       0       0       0       0       0       0       0       0
      Totals:         0       0       0       8       0       0       0       0       0       0       0       0       0       0       0       0
Total ram usage:        8 bytes
 Hardware stack levels used:    1
 Hardware stack levels required when called:   12
 This function calls:
		___fladd
 This function is called by:
		__doprnt
		_ftoa
 This function uses a non-reentrant model


 *************** function ___fladd *****************
 Defined at:
		line 10 in file "C:\Program Files (x86)\Microchip\xc8\v2.05\pic\sources\c90\common\sprcadd.c"
 Parameters:    Size  Location     Type
  b               4   52[BANK2 ] long 
  a               4   56[BANK2 ] long 
 Auto vars:     Size  Location     Type
  grs             1   67[BANK2 ] unsigned char 
  bexp            1   66[BANK2 ] unsigned char 
  aexp            1   65[BANK2 ] unsigned char 
  signs           1   64[BANK2 ] unsigned char 
 Return value:  Size  Location     Type
                  4   52[BANK2 ] unsigned char 
 Registers used:
		wreg, status,2, status,0
 Tracked objects:
		On entry : 
		On exit  : 
		Unchanged: 
 Data sizes:     COMRAM   BANK0   BANK1   BANK2   BANK3   BANK4   BANK5   BANK6   BANK7   BANK8   BANK9  BANK10  BANK11  BANK12  BANK13  BANK14
      Params:         0       0       0       8       0       0       0       0       0       0       0       0       0       0       0       0
      Locals:         0       0       0       4       0       0       0       0       0       0       0       0       0       0       0       0
      Temps:          0       0       0       4       0       0       0       0       0       0       0       0       0       0       0       0
      Totals:         0       0       0      16       0       0       0       0       0       0       0       0       0       0       0       0
Total ram usage:       16 bytes
 Hardware stack levels used:    1
 Hardware stack levels required when called:   11
 This function calls:
		Nothing
 This function is called by:
		__doprnt
		___flsub
 This function uses a non-reentrant model


 *************** function ___flneg *****************
 Defined at:
		line 15 in file "C:\Program Files (x86)\Microchip\xc8\v2.05\pic\sources\c90\common\flneg.c"
 Parameters:    Size  Location     Type
  f1              4    0[BANK2 ] unsigned char 
 Auto vars:     Size  Location     Type
		None
 Return value:  Size  Location     Type
                  4    0[BANK2 ] unsigned char 
 Registers used:
		wreg, status,2, status,0
 Tracked objects:
		On entry : 
		On exit  : 
		Unchanged: 
 Data sizes:     COMRAM   BANK0   BANK1   BANK2   BANK3   BANK4   BANK5   BANK6   BANK7   BANK8   BANK9  BANK10  BANK11  BANK12  BANK13  BANK14
      Params:         0       0       0       4       0       0       0       0       0       0       0       0       0       0       0       0
      Locals:         0       0       0       0       0       0       0       0       0       0       0       0       0       0       0       0
      Temps:          0       0       0       0       0       0       0       0       0       0       0       0       0       0       0       0
      Totals:         0       0       0       4       0       0       0       0       0       0       0       0       0       0       0       0
Total ram usage:        4 bytes
 Hardware stack levels used:    1
 Hardware stack levels required when called:   11
 This function calls:
		Nothing
 This function is called by:
		__doprnt
		_ftoa
 This function uses a non-reentrant model


 *************** function ___flge *****************
 Defined at:
		line 4 in file "C:\Program Files (x86)\Microchip\xc8\v2.05\pic\sources\c90\common\flge.c"
 Parameters:    Size  Location     Type
  ff1             4    0[BANK2 ] unsigned char 
  ff2             4    4[BANK2 ] unsigned char 
 Auto vars:     Size  Location     Type
		None
 Return value:  Size  Location     Type
		None               void
 Registers used:
		wreg, status,2, status,0
 Tracked objects:
		On entry : 
		On exit  : 
		Unchanged: 
 Data sizes:     COMRAM   BANK0   BANK1   BANK2   BANK3   BANK4   BANK5   BANK6   BANK7   BANK8   BANK9  BANK10  BANK11  BANK12  BANK13  BANK14
      Params:         0       0       0       8       0       0       0       0       0       0       0       0       0       0       0       0
      Locals:         0       0       0       0       0       0       0       0       0       0       0       0       0       0       0       0
      Temps:          0       0       0       4       0       0       0       0       0       0       0       0       0       0       0       0
      Totals:         0       0       0      12       0       0       0       0       0       0       0       0       0       0       0       0
Total ram usage:       12 bytes
 Hardware stack levels used:    1
 Hardware stack levels required when called:   11
 This function calls:
		Nothing
 This function is called by:
		__doprnt
 This function uses a non-reentrant model


 *************** function ___fleq *****************
 Defined at:
		line 4 in file "C:\Program Files (x86)\Microchip\xc8\v2.05\pic\sources\c90\common\fleq.c"
 Parameters:    Size  Location     Type
  ff1             4    0[BANK2 ] unsigned char 
  ff2             4    4[BANK2 ] unsigned char 
 Auto vars:     Size  Location     Type
		None
 Return value:  Size  Location     Type
		None               void
 Registers used:
		wreg, status,2, status,0
 Tracked objects:
		On entry : 
		On exit  : 
		Unchanged: 
 Data sizes:     COMRAM   BANK0   BANK1   BANK2   BANK3   BANK4   BANK5   BANK6   BANK7   BANK8   BANK9  BANK10  BANK11  BANK12  BANK13  BANK14
      Params:         0       0       0       8       0       0       0       0       0       0       0       0       0       0       0       0
      Locals:         0       0       0       0       0       0       0       0       0       0       0       0       0       0       0       0
      Temps:          0       0       0       4       0       0       0       0       0       0       0       0       0       0       0       0
      Totals:         0       0       0      12       0       0       0       0       0       0       0       0       0       0       0       0
Total ram usage:       12 bytes
 Hardware stack levels used:    1
 Hardware stack levels required when called:   11
 This function calls:
		Nothing
 This function is called by:
		__doprnt
 This function uses a non-reentrant model


 *************** function _getYearsFromOnTime *****************
 Defined at:
		line 165 in file "heartbeat_timer.c"
 Parameters:    Size  Location     Type
  input_second    4   13[BANK2 ] unsigned long 
 Auto vars:     Size  Location     Type
  years           1   17[BANK2 ] unsigned char 
 Return value:  Size  Location     Type
                  1    wreg      unsigned char 
 Registers used:
		wreg, status,2, status,0, cstack
 Tracked objects:
		On entry : 
		On exit  : 
		Unchanged: 
 Data sizes:     COMRAM   BANK0   BANK1   BANK2   BANK3   BANK4   BANK5   BANK6   BANK7   BANK8   BANK9  BANK10  BANK11  BANK12  BANK13  BANK14
      Params:         0       0       0       4       0       0       0       0       0       0       0       0       0       0       0       0
      Locals:         0       0       0       1       0       0       0       0       0       0       0       0       0       0       0       0
      Temps:          0       0       0       0       0       0       0       0       0       0       0       0       0       0       0       0
      Totals:         0       0       0       5       0       0       0       0       0       0       0       0       0       0       0       0
Total ram usage:        5 bytes
 Hardware stack levels used:    1
 Hardware stack levels required when called:   12
 This function calls:
		___lldiv
 This function is called by:
		_OLED_updateHandler
 This function uses a non-reentrant model


 *************** function _getSecondsFromOnTime *****************
 Defined at:
		line 209 in file "heartbeat_timer.c"
 Parameters:    Size  Location     Type
  input_second    4   13[BANK2 ] unsigned long 
 Auto vars:     Size  Location     Type
  minutes         1   25[BANK2 ] unsigned char 
  hours           1   24[BANK2 ] unsigned char 
  days            1   23[BANK2 ] unsigned char 
  years           1   22[BANK2 ] unsigned char 
  seconds         1   21[BANK2 ] unsigned char 
 Return value:  Size  Location     Type
                  1    wreg      unsigned char 
 Registers used:
		wreg, status,2, status,0, prodl, prodh, cstack
 Tracked objects:
		On entry : 
		On exit  : 
		Unchanged: 
 Data sizes:     COMRAM   BANK0   BANK1   BANK2   BANK3   BANK4   BANK5   BANK6   BANK7   BANK8   BANK9  BANK10  BANK11  BANK12  BANK13  BANK14
      Params:         0       0       0       4       0       0       0       0       0       0       0       0       0       0       0       0
      Locals:         0       0       0       5       0       0       0       0       0       0       0       0       0       0       0       0
      Temps:          0       0       0       4       0       0       0       0       0       0       0       0       0       0       0       0
      Totals:         0       0       0      13       0       0       0       0       0       0       0       0       0       0       0       0
Total ram usage:       13 bytes
 Hardware stack levels used:    1
 Hardware stack levels required when called:   12
 This function calls:
		___lldiv
		___wmul
 This function is called by:
		_OLED_updateHandler
 This function uses a non-reentrant model


 *************** function _getNXQChargeStateStringCaps *****************
 Defined at:
		line 38 in file "NXQ_charge_state.c"
 Parameters:    Size  Location     Type
		None
 Auto vars:     Size  Location     Type
		None
 Return value:  Size  Location     Type
                  2    0[BANK2 ] PTR unsigned char 
 Registers used:
		wreg, status,2, status,0
 Tracked objects:
		On entry : 
		On exit  : 
		Unchanged: 
 Data sizes:     COMRAM   BANK0   BANK1   BANK2   BANK3   BANK4   BANK5   BANK6   BANK7   BANK8   BANK9  BANK10  BANK11  BANK12  BANK13  BANK14
      Params:         0       0       0       2       0       0       0       0       0       0       0       0       0       0       0       0
      Locals:         0       0       0       0       0       0       0       0       0       0       0       0       0       0       0       0
      Temps:          0       0       0       0       0       0       0       0       0       0       0       0       0       0       0       0
      Totals:         0       0       0       2       0       0       0       0       0       0       0       0       0       0       0       0
Total ram usage:        2 bytes
 Hardware stack levels used:    1
 Hardware stack levels required when called:   11
 This function calls:
		Nothing
 This function is called by:
		_OLED_updateHandler
 This function uses a non-reentrant model


 *************** function _getMinutesFromOnTime *****************
 Defined at:
		line 195 in file "heartbeat_timer.c"
 Parameters:    Size  Location     Type
  input_second    4   13[BANK2 ] unsigned long 
 Auto vars:     Size  Location     Type
  hours           1   24[BANK2 ] unsigned char 
  days            1   23[BANK2 ] unsigned char 
  years           1   22[BANK2 ] unsigned char 
  minutes         1   21[BANK2 ] unsigned char 
 Return value:  Size  Location     Type
                  1    wreg      unsigned char 
 Registers used:
		wreg, status,2, status,0, prodl, prodh, cstack
 Tracked objects:
		On entry : 
		On exit  : 
		Unchanged: 
 Data sizes:     COMRAM   BANK0   BANK1   BANK2   BANK3   BANK4   BANK5   BANK6   BANK7   BANK8   BANK9  BANK10  BANK11  BANK12  BANK13  BANK14
      Params:         0       0       0       4       0       0       0       0       0       0       0       0       0       0       0       0
      Locals:         0       0       0       4       0       0       0       0       0       0       0       0       0       0       0       0
      Temps:          0       0       0       4       0       0       0       0       0       0       0       0       0       0       0       0
      Totals:         0       0       0      12       0       0       0       0       0       0       0       0       0       0       0       0
Total ram usage:       12 bytes
 Hardware stack levels used:    1
 Hardware stack levels required when called:   12
 This function calls:
		___lldiv
		___wmul
 This function is called by:
		_OLED_updateHandler
 This function uses a non-reentrant model


 *************** function _getMinorRevisionID *****************
 Defined at:
		line 23 in file "device_IDs.c"
 Parameters:    Size  Location     Type
		None
 Auto vars:     Size  Location     Type
  REVID_RAW       2   11[BANK2 ] unsigned int 
 Return value:  Size  Location     Type
                  1    wreg      unsigned char 
 Registers used:
		wreg, status,2, status,0, cstack
 Tracked objects:
		On entry : 
		On exit  : 
		Unchanged: 
 Data sizes:     COMRAM   BANK0   BANK1   BANK2   BANK3   BANK4   BANK5   BANK6   BANK7   BANK8   BANK9  BANK10  BANK11  BANK12  BANK13  BANK14
      Params:         0       0       0       0       0       0       0       0       0       0       0       0       0       0       0       0
      Locals:         0       0       0       2       0       0       0       0       0       0       0       0       0       0       0       0
      Temps:          0       0       0       0       0       0       0       0       0       0       0       0       0       0       0       0
      Totals:         0       0       0       2       0       0       0       0       0       0       0       0       0       0       0       0
Total ram usage:        2 bytes
 Hardware stack levels used:    1
 Hardware stack levels required when called:   13
 This function calls:
		_FLASH_ReadWord
 This function is called by:
		_OLED_updateHandler
		_ringBufferLUT
 This function uses a non-reentrant model


 *************** function _getMajorRevisionID *****************
 Defined at:
		line 12 in file "device_IDs.c"
 Parameters:    Size  Location     Type
		None
 Auto vars:     Size  Location     Type
  REVID_RAW       2   14[BANK2 ] unsigned int 
 Return value:  Size  Location     Type
                  1    wreg      unsigned char 
 Registers used:
		wreg, status,2, status,0, cstack
 Tracked objects:
		On entry : 
		On exit  : 
		Unchanged: 
 Data sizes:     COMRAM   BANK0   BANK1   BANK2   BANK3   BANK4   BANK5   BANK6   BANK7   BANK8   BANK9  BANK10  BANK11  BANK12  BANK13  BANK14
      Params:         0       0       0       0       0       0       0       0       0       0       0       0       0       0       0       0
      Locals:         0       0       0       2       0       0       0       0       0       0       0       0       0       0       0       0
      Temps:          0       0       0       3       0       0       0       0       0       0       0       0       0       0       0       0
      Totals:         0       0       0       5       0       0       0       0       0       0       0       0       0       0       0       0
Total ram usage:        5 bytes
 Hardware stack levels used:    1
 Hardware stack levels required when called:   13
 This function calls:
		_FLASH_ReadWord
 This function is called by:
		_OLED_updateHandler
		_ringBufferLUT
 This function uses a non-reentrant model


 *************** function _getHoursFromOnTime *****************
 Defined at:
		line 183 in file "heartbeat_timer.c"
 Parameters:    Size  Location     Type
  input_second    4   13[BANK2 ] unsigned long 
 Auto vars:     Size  Location     Type
  days            1   23[BANK2 ] unsigned char 
  years           1   22[BANK2 ] unsigned char 
  hours           1   21[BANK2 ] unsigned char 
 Return value:  Size  Location     Type
                  1    wreg      unsigned char 
 Registers used:
		wreg, status,2, status,0, prodl, prodh, cstack
 Tracked objects:
		On entry : 
		On exit  : 
		Unchanged: 
 Data sizes:     COMRAM   BANK0   BANK1   BANK2   BANK3   BANK4   BANK5   BANK6   BANK7   BANK8   BANK9  BANK10  BANK11  BANK12  BANK13  BANK14
      Params:         0       0       0       4       0       0       0       0       0       0       0       0       0       0       0       0
      Locals:         0       0       0       3       0       0       0       0       0       0       0       0       0       0       0       0
      Temps:          0       0       0       4       0       0       0       0       0       0       0       0       0       0       0       0
      Totals:         0       0       0      11       0       0       0       0       0       0       0       0       0       0       0       0
Total ram usage:       11 bytes
 Hardware stack levels used:    1
 Hardware stack levels required when called:   12
 This function calls:
		___lldiv
		___wmul
 This function is called by:
		_OLED_updateHandler
 This function uses a non-reentrant model


 *************** function _getDeviceID *****************
 Defined at:
		line 4 in file "device_IDs.c"
 Parameters:    Size  Location     Type
		None
 Auto vars:     Size  Location     Type
		None
 Return value:  Size  Location     Type
                  2   11[BANK2 ] unsigned int 
 Registers used:
		wreg, status,2, status,0, cstack
 Tracked objects:
		On entry : 
		On exit  : 
		Unchanged: 
 Data sizes:     COMRAM   BANK0   BANK1   BANK2   BANK3   BANK4   BANK5   BANK6   BANK7   BANK8   BANK9  BANK10  BANK11  BANK12  BANK13  BANK14
      Params:         0       0       0       2       0       0       0       0       0       0       0       0       0       0       0       0
      Locals:         0       0       0       0       0       0       0       0       0       0       0       0       0       0       0       0
      Temps:          0       0       0       0       0       0       0       0       0       0       0       0       0       0       0       0
      Totals:         0       0       0       2       0       0       0       0       0       0       0       0       0       0       0       0
Total ram usage:        2 bytes
 Hardware stack levels used:    1
 Hardware stack levels required when called:   13
 This function calls:
		_FLASH_ReadWord
 This function is called by:
		_OLED_updateHandler
		_ringBufferLUT
 This function uses a non-reentrant model


 *************** function _FLASH_ReadWord *****************
 Defined at:
		line 71 in file "mcc_generated_files/memory.c"
 Parameters:    Size  Location     Type
  flashAddr       4    4[BANK2 ] unsigned long 
 Auto vars:     Size  Location     Type
		None
 Return value:  Size  Location     Type
                  2    4[BANK2 ] unsigned int 
 Registers used:
		wreg, status,2, status,0, cstack
 Tracked objects:
		On entry : 
		On exit  : 
		Unchanged: 
 Data sizes:     COMRAM   BANK0   BANK1   BANK2   BANK3   BANK4   BANK5   BANK6   BANK7   BANK8   BANK9  BANK10  BANK11  BANK12  BANK13  BANK14
      Params:         0       0       0       4       0       0       0       0       0       0       0       0       0       0       0       0
      Locals:         0       0       0       0       0       0       0       0       0       0       0       0       0       0       0       0
      Temps:          0       0       0       3       0       0       0       0       0       0       0       0       0       0       0       0
      Totals:         0       0       0       7       0       0       0       0       0       0       0       0       0       0       0       0
Total ram usage:        7 bytes
 Hardware stack levels used:    1
 Hardware stack levels required when called:   12
 This function calls:
		_FLASH_ReadByte
 This function is called by:
		_getDeviceID
		_getMajorRevisionID
		_getMinorRevisionID
		_getUserID
 This function uses a non-reentrant model


 *************** function _FLASH_ReadByte *****************
 Defined at:
		line 59 in file "mcc_generated_files/memory.c"
 Parameters:    Size  Location     Type
  flashAddr       4    0[BANK2 ] unsigned long 
 Auto vars:     Size  Location     Type
		None
 Return value:  Size  Location     Type
                  1    wreg      unsigned char 
 Registers used:
		wreg, status,2
 Tracked objects:
		On entry : 
		On exit  : 
		Unchanged: 
 Data sizes:     COMRAM   BANK0   BANK1   BANK2   BANK3   BANK4   BANK5   BANK6   BANK7   BANK8   BANK9  BANK10  BANK11  BANK12  BANK13  BANK14
      Params:         0       0       0       4       0       0       0       0       0       0       0       0       0       0       0       0
      Locals:         0       0       0       0       0       0       0       0       0       0       0       0       0       0       0       0
      Temps:          0       0       0       0       0       0       0       0       0       0       0       0       0       0       0       0
      Totals:         0       0       0       4       0       0       0       0       0       0       0       0       0       0       0       0
Total ram usage:        4 bytes
 Hardware stack levels used:    1
 Hardware stack levels required when called:   11
 This function calls:
		Nothing
 This function is called by:
		_FLASH_ReadWord
		_FLASH_WriteByte
 This function uses a non-reentrant model


 *************** function _getDaysFromOnTime *****************
 Defined at:
		line 173 in file "heartbeat_timer.c"
 Parameters:    Size  Location     Type
  input_second    4   13[BANK2 ] unsigned long 
 Auto vars:     Size  Location     Type
  years           1   22[BANK2 ] unsigned char 
  days            1   21[BANK2 ] unsigned char 
 Return value:  Size  Location     Type
                  1    wreg      unsigned char 
 Registers used:
		wreg, status,2, status,0, prodl, prodh, cstack
 Tracked objects:
		On entry : 
		On exit  : 
		Unchanged: 
 Data sizes:     COMRAM   BANK0   BANK1   BANK2   BANK3   BANK4   BANK5   BANK6   BANK7   BANK8   BANK9  BANK10  BANK11  BANK12  BANK13  BANK14
      Params:         0       0       0       4       0       0       0       0       0       0       0       0       0       0       0       0
      Locals:         0       0       0       2       0       0       0       0       0       0       0       0       0       0       0       0
      Temps:          0       0       0       4       0       0       0       0       0       0       0       0       0       0       0       0
      Totals:         0       0       0      10       0       0       0       0       0       0       0       0       0       0       0       0
Total ram usage:       10 bytes
 Hardware stack levels used:    1
 Hardware stack levels required when called:   12
 This function calls:
		___lldiv
		___wmul
 This function is called by:
		_OLED_updateHandler
 This function uses a non-reentrant model


 *************** function ___wmul *****************
 Defined at:
		line 15 in file "C:\Program Files (x86)\Microchip\xc8\v2.05\pic\sources\c90\common\Umul16.c"
 Parameters:    Size  Location     Type
  multiplier      2    0[BANK2 ] unsigned int 
  multiplicand    2    2[BANK2 ] unsigned int 
 Auto vars:     Size  Location     Type
  product         2    4[BANK2 ] unsigned int 
 Return value:  Size  Location     Type
                  2    0[BANK2 ] unsigned int 
 Registers used:
		wreg, status,2, status,0, prodl, prodh
 Tracked objects:
		On entry : 
		On exit  : 
		Unchanged: 
 Data sizes:     COMRAM   BANK0   BANK1   BANK2   BANK3   BANK4   BANK5   BANK6   BANK7   BANK8   BANK9  BANK10  BANK11  BANK12  BANK13  BANK14
      Params:         0       0       0       4       0       0       0       0       0       0       0       0       0       0       0       0
      Locals:         0       0       0       2       0       0       0       0       0       0       0       0       0       0       0       0
      Temps:          0       0       0       0       0       0       0       0       0       0       0       0       0       0       0       0
      Totals:         0       0       0       6       0       0       0       0       0       0       0       0       0       0       0       0
Total ram usage:        6 bytes
 Hardware stack levels used:    1
 Hardware stack levels required when called:   11
 This function calls:
		Nothing
 This function is called by:
		_getStringSecondsAsTime
		_getDaysFromOnTime
		_getHoursFromOnTime
		_getMinutesFromOnTime
		_getSecondsFromOnTime
		__doprnt
 This function uses a non-reentrant model


 *************** function ___lldiv *****************
 Defined at:
		line 7 in file "C:\Program Files (x86)\Microchip\xc8\v2.05\pic\sources\c90\common\__lldiv.c"
 Parameters:    Size  Location     Type
  dividend        4    0[BANK2 ] unsigned long 
  divisor         4    4[BANK2 ] unsigned long 
 Auto vars:     Size  Location     Type
  quotient        4    8[BANK2 ] unsigned long 
  counter         1   12[BANK2 ] unsigned char 
 Return value:  Size  Location     Type
                  4    0[BANK2 ] unsigned long 
 Registers used:
		wreg, status,2, status,0
 Tracked objects:
		On entry : 
		On exit  : 
		Unchanged: 
 Data sizes:     COMRAM   BANK0   BANK1   BANK2   BANK3   BANK4   BANK5   BANK6   BANK7   BANK8   BANK9  BANK10  BANK11  BANK12  BANK13  BANK14
      Params:         0       0       0       8       0       0       0       0       0       0       0       0       0       0       0       0
      Locals:         0       0       0       5       0       0       0       0       0       0       0       0       0       0       0       0
      Temps:          0       0       0       0       0       0       0       0       0       0       0       0       0       0       0       0
      Totals:         0       0       0      13       0       0       0       0       0       0       0       0       0       0       0       0
Total ram usage:       13 bytes
 Hardware stack levels used:    1
 Hardware stack levels required when called:   11
 This function calls:
		Nothing
 This function is called by:
		_getStringSecondsAsTime
		_getYearsFromOnTime
		_getDaysFromOnTime
		_getHoursFromOnTime
		_getMinutesFromOnTime
		_getSecondsFromOnTime
		__doprnt
 This function uses a non-reentrant model


 *************** function _getCauseOfResetStringSmall *****************
 Defined at:
		line 118 in file "cause_of_reset.c"
 Parameters:    Size  Location     Type
  r               1    wreg     enum E9577
 Auto vars:     Size  Location     Type
  r               1    2[BANK2 ] enum E9577
 Return value:  Size  Location     Type
                  2    0[BANK2 ] PTR inline unsigned char
 Registers used:
		wreg, fsr2l, fsr2h, status,2, status,0, prodl, prodh
 Tracked objects:
		On entry : 
		On exit  : 
		Unchanged: 
 Data sizes:     COMRAM   BANK0   BANK1   BANK2   BANK3   BANK4   BANK5   BANK6   BANK7   BANK8   BANK9  BANK10  BANK11  BANK12  BANK13  BANK14
      Params:         0       0       0       2       0       0       0       0       0       0       0       0       0       0       0       0
      Locals:         0       0       0       1       0       0       0       0       0       0       0       0       0       0       0       0
      Temps:          0       0       0       0       0       0       0       0       0       0       0       0       0       0       0       0
      Totals:         0       0       0       3       0       0       0       0       0       0       0       0       0       0       0       0
Total ram usage:        3 bytes
 Hardware stack levels used:    1
 Hardware stack levels required when called:   11
 This function calls:
		Nothing
 This function is called by:
		_OLED_updateHandler
 This function uses a non-reentrant model


 *************** function ___fldiv *****************
 Defined at:
		line 11 in file "C:\Program Files (x86)\Microchip\xc8\v2.05\pic\sources\c90\common\sprcdiv.c"
 Parameters:    Size  Location     Type
  b               4    0[BANK2 ] PTR inline unsigned char
  a               4    4[BANK2 ] PTR inline unsigned char
 Auto vars:     Size  Location     Type
  grs             4   19[BANK2 ] unsigned long 
  rem             4   12[BANK2 ] unsigned long 
  new_exp         2   17[BANK2 ] int 
  aexp            1   24[BANK2 ] unsigned char 
  bexp            1   23[BANK2 ] unsigned char 
  sign            1   16[BANK2 ] unsigned char 
 Return value:  Size  Location     Type
                  4    0[BANK2 ] unsigned char 
 Registers used:
		wreg, status,2, status,0
 Tracked objects:
		On entry : 
		On exit  : 
		Unchanged: 
 Data sizes:     COMRAM   BANK0   BANK1   BANK2   BANK3   BANK4   BANK5   BANK6   BANK7   BANK8   BANK9  BANK10  BANK11  BANK12  BANK13  BANK14
      Params:         0       0       0       8       0       0       0       0       0       0       0       0       0       0       0       0
      Locals:         0       0       0      13       0       0       0       0       0       0       0       0       0       0       0       0
      Temps:          0       0       0       4       0       0       0       0       0       0       0       0       0       0       0       0
      Totals:         0       0       0      25       0       0       0       0       0       0       0       0       0       0       0       0
Total ram usage:       25 bytes
 Hardware stack levels used:    1
 Hardware stack levels required when called:   11
 This function calls:
		Nothing
 This function is called by:
		_OLED_updateHandler
		_ringBufferLUT
 This function uses a non-reentrant model


 *************** function _OLED_UpdateFromRAMBuffer *****************
 Defined at:
		line 293 in file "oled.c"
 Parameters:    Size  Location     Type
		None
 Auto vars:     Size  Location     Type
  char_index      1   38[BANK2 ] unsigned char 
  char_index      1   37[BANK2 ] unsigned char 
  char_index      1   36[BANK2 ] unsigned char 
  char_index      1   35[BANK2 ] unsigned char 
 Return value:  Size  Location     Type
                  1    wreg      void 
 Registers used:
		wreg, fsr0l, fsr0h, fsr2l, fsr2h, status,2, status,0, tblptrl, tblptrh, tblptru, prodl, prodh, cstack
 Tracked objects:
		On entry : 
		On exit  : 
		Unchanged: 
 Data sizes:     COMRAM   BANK0   BANK1   BANK2   BANK3   BANK4   BANK5   BANK6   BANK7   BANK8   BANK9  BANK10  BANK11  BANK12  BANK13  BANK14
      Params:         0       0       0       0       0       0       0       0       0       0       0       0       0       0       0       0
      Locals:         0       0       0       4       0       0       0       0       0       0       0       0       0       0       0       0
      Temps:          0       0       0       0       0       0       0       0       0       0       0       0       0       0       0       0
      Totals:         0       0       0       4       0       0       0       0       0       0       0       0       0       0       0       0
Total ram usage:        4 bytes
 Hardware stack levels used:    1
 Hardware stack levels required when called:   16
 This function calls:
		_OLED_WriteString
		_OLED_YX
		_strlen
 This function is called by:
		_OLED_updateHandler
 This function uses a non-reentrant model


 *************** function _strlen *****************
 Defined at:
		line 4 in file "C:\Program Files (x86)\Microchip\xc8\v2.05\pic\sources\c90\common\strlen.c"
 Parameters:    Size  Location     Type
  s               2    0[BANK2 ] PTR const unsigned char 
		 -> line(64), OLED_RAM_Buffer.line3(17), OLED_RAM_Buffer.line2(17), OLED_RAM_Buffer.line1(17), 
		 -> OLED_RAM_Buffer.line0(17), OLED_RAM_Buffer(68), getStringSecondsAsTime@return_string(40), 
 Auto vars:     Size  Location     Type
  cp              2    2[BANK2 ] PTR const unsigned char 
		 -> line(64), OLED_RAM_Buffer.line3(17), OLED_RAM_Buffer.line2(17), OLED_RAM_Buffer.line1(17), 
		 -> OLED_RAM_Buffer.line0(17), OLED_RAM_Buffer(68), getStringSecondsAsTime@return_string(40), 
 Return value:  Size  Location     Type
                  2    0[BANK2 ] unsigned int 
 Registers used:
		wreg, fsr2l, fsr2h, status,2, status,0
 Tracked objects:
		On entry : 
		On exit  : 
		Unchanged: 
 Data sizes:     COMRAM   BANK0   BANK1   BANK2   BANK3   BANK4   BANK5   BANK6   BANK7   BANK8   BANK9  BANK10  BANK11  BANK12  BANK13  BANK14
      Params:         0       0       0       2       0       0       0       0       0       0       0       0       0       0       0       0
      Locals:         0       0       0       2       0       0       0       0       0       0       0       0       0       0       0       0
      Temps:          0       0       0       0       0       0       0       0       0       0       0       0       0       0       0       0
      Totals:         0       0       0       4       0       0       0       0       0       0       0       0       0       0       0       0
Total ram usage:        4 bytes
 Hardware stack levels used:    1
 Hardware stack levels required when called:   11
 This function calls:
		Nothing
 This function is called by:
		_getStringSecondsAsTime
		_OLED_UpdateFromRAMBuffer
		_ringBufferLUT
		_terminal_ringBufferPull
 This function uses a non-reentrant model


 *************** function _OLED_YX *****************
 Defined at:
		line 203 in file "oled.c"
 Parameters:    Size  Location     Type
  Row             1    wreg     unsigned char 
  Column          1   20[BANK2 ] unsigned char 
 Auto vars:     Size  Location     Type
  Row             1   24[BANK2 ] unsigned char 
 Return value:  Size  Location     Type
                  1    wreg      void 
 Registers used:
		wreg, fsr2l, fsr2h, status,2, status,0, prodl, prodh, cstack
 Tracked objects:
		On entry : 
		On exit  : 
		Unchanged: 
 Data sizes:     COMRAM   BANK0   BANK1   BANK2   BANK3   BANK4   BANK5   BANK6   BANK7   BANK8   BANK9  BANK10  BANK11  BANK12  BANK13  BANK14
      Params:         0       0       0       1       0       0       0       0       0       0       0       0       0       0       0       0
      Locals:         0       0       0       1       0       0       0       0       0       0       0       0       0       0       0       0
      Temps:          0       0       0       3       0       0       0       0       0       0       0       0       0       0       0       0
      Totals:         0       0       0       5       0       0       0       0       0       0       0       0       0       0       0       0
Total ram usage:        5 bytes
 Hardware stack levels used:    1
 Hardware stack levels required when called:   15
 This function calls:
		_OLED_Command
 This function is called by:
		_OLED_UpdateFromRAMBuffer
 This function uses a non-reentrant model


 *************** function _OLED_WriteString *****************
 Defined at:
		line 261 in file "oled.c"
 Parameters:    Size  Location     Type
  s               2   33[BANK2 ] PTR unsigned char 
		 -> ftoa@buf(17), OLED_RAM_Buffer(68), STR_59(1), STR_58(1), 
		 -> OLED_WriteInteger@s(20), 
 Auto vars:     Size  Location     Type
		None
 Return value:  Size  Location     Type
                  1    wreg      void 
 Registers used:
		wreg, fsr0l, fsr0h, fsr2l, fsr2h, status,2, status,0, tblptrl, tblptrh, tblptru, cstack
 Tracked objects:
		On entry : 
		On exit  : 
		Unchanged: 
 Data sizes:     COMRAM   BANK0   BANK1   BANK2   BANK3   BANK4   BANK5   BANK6   BANK7   BANK8   BANK9  BANK10  BANK11  BANK12  BANK13  BANK14
      Params:         0       0       0       2       0       0       0       0       0       0       0       0       0       0       0       0
      Locals:         0       0       0       0       0       0       0       0       0       0       0       0       0       0       0       0
      Temps:          0       0       0       0       0       0       0       0       0       0       0       0       0       0       0       0
      Totals:         0       0       0       2       0       0       0       0       0       0       0       0       0       0       0       0
Total ram usage:        2 bytes
 Hardware stack levels used:    1
 Hardware stack levels required when called:   15
 This function calls:
		_OLED_PutChar
 This function is called by:
		_OLED_UpdateFromRAMBuffer
		_OLED_WriteInteger
		_OLED_WriteFloat
 This function uses a non-reentrant model


 *************** function _OLED_Init *****************
 Defined at:
		line 173 in file "oled.c"
 Parameters:    Size  Location     Type
		None
 Auto vars:     Size  Location     Type
		None
 Return value:  Size  Location     Type
                  1    wreg      void 
 Registers used:
		wreg, fsr2l, fsr2h, status,2, status,0, cstack
 Tracked objects:
		On entry : 
		On exit  : 
		Unchanged: 
 Data sizes:     COMRAM   BANK0   BANK1   BANK2   BANK3   BANK4   BANK5   BANK6   BANK7   BANK8   BANK9  BANK10  BANK11  BANK12  BANK13  BANK14
      Params:         0       0       0       0       0       0       0       0       0       0       0       0       0       0       0       0
      Locals:         0       0       0       0       0       0       0       0       0       0       0       0       0       0       0       0
      Temps:          0       0       0       0       0       0       0       0       0       0       0       0       0       0       0       0
      Totals:         0       0       0       0       0       0       0       0       0       0       0       0       0       0       0       0
Total ram usage:        0 bytes
 Hardware stack levels used:    1
 Hardware stack levels required when called:   15
 This function calls:
		_OLED_Command
 This function is called by:
		_main
 This function uses a non-reentrant model


 *************** function _OLED_Command *****************
 Defined at:
		line 121 in file "oled.c"
 Parameters:    Size  Location     Type
  temp            1    wreg     unsigned char 
 Auto vars:     Size  Location     Type
  temp            1   16[BANK2 ] unsigned char 
  data_array      2   18[BANK2 ] unsigned char [2]
  length          1    0        unsigned char 
 Return value:  Size  Location     Type
                  1    wreg      void 
 Registers used:
		wreg, fsr2l, fsr2h, status,2, status,0, cstack
 Tracked objects:
		On entry : 
		On exit  : 
		Unchanged: 
 Data sizes:     COMRAM   BANK0   BANK1   BANK2   BANK3   BANK4   BANK5   BANK6   BANK7   BANK8   BANK9  BANK10  BANK11  BANK12  BANK13  BANK14
      Params:         0       0       0       0       0       0       0       0       0       0       0       0       0       0       0       0
      Locals:         0       0       0       4       0       0       0       0       0       0       0       0       0       0       0       0
      Temps:          0       0       0       0       0       0       0       0       0       0       0       0       0       0       0       0
      Totals:         0       0       0       4       0       0       0       0       0       0       0       0       0       0       0       0
Total ram usage:        4 bytes
 Hardware stack levels used:    1
 Hardware stack levels required when called:   14
 This function calls:
		_I2C2_MasterWrite
 This function is called by:
		_OLED_Init
		_OLED_YX
 This function uses a non-reentrant model


 *************** function _OLED_Clear *****************
 Defined at:
		line 246 in file "oled.c"
 Parameters:    Size  Location     Type
		None
 Auto vars:     Size  Location     Type
  col             2   35[BANK2 ] unsigned int 
  row             2   33[BANK2 ] unsigned int 
 Return value:  Size  Location     Type
                  1    wreg      void 
 Registers used:
		wreg, fsr2l, fsr2h, status,2, status,0, tblptrl, tblptrh, tblptru, cstack
 Tracked objects:
		On entry : 
		On exit  : 
		Unchanged: 
 Data sizes:     COMRAM   BANK0   BANK1   BANK2   BANK3   BANK4   BANK5   BANK6   BANK7   BANK8   BANK9  BANK10  BANK11  BANK12  BANK13  BANK14
      Params:         0       0       0       0       0       0       0       0       0       0       0       0       0       0       0       0
      Locals:         0       0       0       4       0       0       0       0       0       0       0       0       0       0       0       0
      Temps:          0       0       0       0       0       0       0       0       0       0       0       0       0       0       0       0
      Totals:         0       0       0       4       0       0       0       0       0       0       0       0       0       0       0       0
Total ram usage:        4 bytes
 Hardware stack levels used:    1
 Hardware stack levels required when called:   15
 This function calls:
		_OLED_PutChar
 This function is called by:
		_main
 This function uses a non-reentrant model


 *************** function _OLED_PutChar *****************
 Defined at:
		line 211 in file "oled.c"
 Parameters:    Size  Location     Type
  ch              1    wreg     unsigned char 
 Auto vars:     Size  Location     Type
  ch              1   32[BANK2 ] unsigned char 
  data_array      9   20[BANK2 ] unsigned char [9]
  input_base      2   29[BANK2 ] PTR const unsigned char 
		 -> OledFont(768), 
  length          1    0        unsigned char 
 Return value:  Size  Location     Type
                  1    wreg      void 
 Registers used:
		wreg, fsr2l, fsr2h, status,2, status,0, tblptrl, tblptrh, tblptru, cstack
 Tracked objects:
		On entry : 
		On exit  : 
		Unchanged: 
 Data sizes:     COMRAM   BANK0   BANK1   BANK2   BANK3   BANK4   BANK5   BANK6   BANK7   BANK8   BANK9  BANK10  BANK11  BANK12  BANK13  BANK14
      Params:         0       0       0       0       0       0       0       0       0       0       0       0       0       0       0       0
      Locals:         0       0       0      13       0       0       0       0       0       0       0       0       0       0       0       0
      Temps:          0       0       0       4       0       0       0       0       0       0       0       0       0       0       0       0
      Totals:         0       0       0      17       0       0       0       0       0       0       0       0       0       0       0       0
Total ram usage:       17 bytes
 Hardware stack levels used:    1
 Hardware stack levels required when called:   14
 This function calls:
		_I2C2_MasterWrite
		_memmove
 This function is called by:
		_OLED_Clear
		_OLED_WriteString
 This function uses a non-reentrant model


 *************** function _memmove *****************
 Defined at:
		line 8 in file "C:\Program Files (x86)\Microchip\xc8\v2.05\pic\sources\c90\common\memmove.c"
 Parameters:    Size  Location     Type
  d1              2    0[BANK2 ] PTR void 
		 -> OLED_PutChar@data_array(9), 
  s1              2    2[BANK2 ] PTR const void 
		 -> OledFont(768), 
  n               2    4[BANK2 ] unsigned int 
 Auto vars:     Size  Location     Type
  s               2   10[BANK2 ] PTR const unsigned char 
		 -> OledFont(768), 
  d               2    8[BANK2 ] PTR unsigned char 
		 -> OLED_PutChar@data_array(9), 
 Return value:  Size  Location     Type
                  2    0[BANK2 ] PTR void 
 Registers used:
		wreg, fsr2l, fsr2h, status,2, status,0, tblptrl, tblptrh, tblptru
 Tracked objects:
		On entry : 
		On exit  : 
		Unchanged: 
 Data sizes:     COMRAM   BANK0   BANK1   BANK2   BANK3   BANK4   BANK5   BANK6   BANK7   BANK8   BANK9  BANK10  BANK11  BANK12  BANK13  BANK14
      Params:         0       0       0       6       0       0       0       0       0       0       0       0       0       0       0       0
      Locals:         0       0       0       4       0       0       0       0       0       0       0       0       0       0       0       0
      Temps:          0       0       0       2       0       0       0       0       0       0       0       0       0       0       0       0
      Totals:         0       0       0      12       0       0       0       0       0       0       0       0       0       0       0       0
Total ram usage:       12 bytes
 Hardware stack levels used:    1
 Hardware stack levels required when called:   11
 This function calls:
		Nothing
 This function is called by:
		_OLED_PutChar
 This function uses a non-reentrant model


 *************** function _LM73TempSensorInitialize *****************
 Defined at:
		line 13 in file "LM73_I2C.c"
 Parameters:    Size  Location     Type
		None
 Auto vars:     Size  Location     Type
  output_data_    2   16[BANK2 ] unsigned char [2]
  length          1    0        unsigned char 
 Return value:  Size  Location     Type
                  1    wreg      void 
 Registers used:
		wreg, fsr2l, fsr2h, status,2, status,0, cstack
 Tracked objects:
		On entry : 
		On exit  : 
		Unchanged: 
 Data sizes:     COMRAM   BANK0   BANK1   BANK2   BANK3   BANK4   BANK5   BANK6   BANK7   BANK8   BANK9  BANK10  BANK11  BANK12  BANK13  BANK14
      Params:         0       0       0       0       0       0       0       0       0       0       0       0       0       0       0       0
      Locals:         0       0       0       3       0       0       0       0       0       0       0       0       0       0       0       0
      Temps:          0       0       0       0       0       0       0       0       0       0       0       0       0       0       0       0
      Totals:         0       0       0       3       0       0       0       0       0       0       0       0       0       0       0       0
Total ram usage:        3 bytes
 Hardware stack levels used:    1
 Hardware stack levels required when called:   14
 This function calls:
		_I2C2_MasterWrite
 This function is called by:
		_main
 This function uses a non-reentrant model


 *************** function _LM73AcquisitionHandler *****************
 Defined at:
		line 102 in file "LM73_I2C.c"
 Parameters:    Size  Location     Type
		None
 Auto vars:     Size  Location     Type
		None
 Return value:  Size  Location     Type
                  1    wreg      void 
 Registers used:
		wreg, fsr2l, fsr2h, status,2, status,0, prodl, prodh, cstack
 Tracked objects:
		On entry : 
		On exit  : 
		Unchanged: 
 Data sizes:     COMRAM   BANK0   BANK1   BANK2   BANK3   BANK4   BANK5   BANK6   BANK7   BANK8   BANK9  BANK10  BANK11  BANK12  BANK13  BANK14
      Params:         0       0       0       0       0       0       0       0       0       0       0       0       0       0       0       0
      Locals:         0       0       0       0       0       0       0       0       0       0       0       0       0       0       0       0
      Temps:          0       0       0       0       0       0       0       0       0       0       0       0       0       0       0       0
      Totals:         0       0       0       0       0       0       0       0       0       0       0       0       0       0       0       0
Total ram usage:        0 bytes
 Hardware stack levels used:    1
 Hardware stack levels required when called:   14
 This function calls:
		_I2C2_MasterRead
		_I2C2_MasterWrite
		_LM73Convert
 This function is called by:
		_main
 This function uses a non-reentrant model


 *************** function _LM73Convert *****************
 Defined at:
		line 184 in file "LM73_I2C.c"
 Parameters:    Size  Location     Type
		None
 Auto vars:     Size  Location     Type
  Ambient_Conv    2   46[BANK2 ] unsigned int 
  POS5_Conv       2   44[BANK2 ] unsigned int 
  QI_Conv         2   42[BANK2 ] unsigned int 
 Return value:  Size  Location     Type
                  1    wreg      void 
 Registers used:
		wreg, status,2, status,0, prodl, prodh, cstack
 Tracked objects:
		On entry : 
		On exit  : 
		Unchanged: 
 Data sizes:     COMRAM   BANK0   BANK1   BANK2   BANK3   BANK4   BANK5   BANK6   BANK7   BANK8   BANK9  BANK10  BANK11  BANK12  BANK13  BANK14
      Params:         0       0       0       0       0       0       0       0       0       0       0       0       0       0       0       0
      Locals:         0       0       0       6       0       0       0       0       0       0       0       0       0       0       0       0
      Temps:          0       0       0       3       0       0       0       0       0       0       0       0       0       0       0       0
      Totals:         0       0       0       9       0       0       0       0       0       0       0       0       0       0       0       0
Total ram usage:        9 bytes
 Hardware stack levels used:    1
 Hardware stack levels required when called:   12
 This function calls:
		___flmul
		___xxtofl
 This function is called by:
		_LM73AcquisitionHandler
 This function uses a non-reentrant model


 *************** function ___xxtofl *****************
 Defined at:
		line 10 in file "C:\Program Files (x86)\Microchip\xc8\v2.05\pic\sources\c90\common\xxtofl.c"
 Parameters:    Size  Location     Type
  sign            1    wreg     unsigned char 
  val             4    0[BANK2 ] long 
 Auto vars:     Size  Location     Type
  sign            1    8[BANK2 ] unsigned char 
  arg             4   10[BANK2 ] unsigned long 
  exp             1    9[BANK2 ] unsigned char 
 Return value:  Size  Location     Type
                  4    0[BANK2 ] unsigned char 
 Registers used:
		wreg, status,2, status,0
 Tracked objects:
		On entry : 
		On exit  : 
		Unchanged: 
 Data sizes:     COMRAM   BANK0   BANK1   BANK2   BANK3   BANK4   BANK5   BANK6   BANK7   BANK8   BANK9  BANK10  BANK11  BANK12  BANK13  BANK14
      Params:         0       0       0       4       0       0       0       0       0       0       0       0       0       0       0       0
      Locals:         0       0       0       6       0       0       0       0       0       0       0       0       0       0       0       0
      Temps:          0       0       0       4       0       0       0       0       0       0       0       0       0       0       0       0
      Totals:         0       0       0      14       0       0       0       0       0       0       0       0       0       0       0       0
Total ram usage:       14 bytes
 Hardware stack levels used:    1
 Hardware stack levels required when called:   11
 This function calls:
		Nothing
 This function is called by:
		_LM73Convert
		__doprnt
		_ftoa
 This function uses a non-reentrant model


 *************** function ___flmul *****************
 Defined at:
		line 8 in file "C:\Program Files (x86)\Microchip\xc8\v2.05\pic\sources\c90\common\sprcmul.c"
 Parameters:    Size  Location     Type
  b               4   14[BANK2 ] unsigned char 
  a               4   18[BANK2 ] unsigned char 
 Auto vars:     Size  Location     Type
  prod            4   33[BANK2 ] struct .
  grs             4   28[BANK2 ] unsigned long 
  temp            2   37[BANK2 ] struct .
  bexp            1   32[BANK2 ] unsigned char 
  aexp            1   27[BANK2 ] unsigned char 
  sign            1   26[BANK2 ] unsigned char 
 Return value:  Size  Location     Type
                  4   14[BANK2 ] unsigned char 
 Registers used:
		wreg, status,2, status,0, prodl, prodh
 Tracked objects:
		On entry : 
		On exit  : 
		Unchanged: 
 Data sizes:     COMRAM   BANK0   BANK1   BANK2   BANK3   BANK4   BANK5   BANK6   BANK7   BANK8   BANK9  BANK10  BANK11  BANK12  BANK13  BANK14
      Params:         0       0       0       8       0       0       0       0       0       0       0       0       0       0       0       0
      Locals:         0       0       0      13       0       0       0       0       0       0       0       0       0       0       0       0
      Temps:          0       0       0       4       0       0       0       0       0       0       0       0       0       0       0       0
      Totals:         0       0       0      25       0       0       0       0       0       0       0       0       0       0       0       0
Total ram usage:       25 bytes
 Hardware stack levels used:    1
 Hardware stack levels required when called:   11
 This function calls:
		Nothing
 This function is called by:
		_LM73Convert
		_fround
		_scale
		__doprnt
		_ftoa
 This function uses a non-reentrant model


 *************** function _I2C2_MasterWrite *****************
 Defined at:
		line 601 in file "mcc_generated_files/i2c2.c"
 Parameters:    Size  Location     Type
  pdata           2    9[BANK2 ] PTR unsigned char 
		 -> OLED_PutChar@data_array(9), OLED_Data@data_array(2), OLED_Command@data_array(2), LM73TempSensorInitialize@output_data_array(2), 
		 -> NULL(0), 
  length          1   11[BANK2 ] unsigned char 
  address         2   12[BANK2 ] unsigned int 
  pflag           2   14[BANK2 ] PTR enum E9433
		 -> I2C_STATUS(1), 
 Auto vars:     Size  Location     Type
		None
 Return value:  Size  Location     Type
                  1    wreg      void 
 Registers used:
		wreg, fsr2l, fsr2h, status,2, status,0, cstack
 Tracked objects:
		On entry : 
		On exit  : 
		Unchanged: 
 Data sizes:     COMRAM   BANK0   BANK1   BANK2   BANK3   BANK4   BANK5   BANK6   BANK7   BANK8   BANK9  BANK10  BANK11  BANK12  BANK13  BANK14
      Params:         0       0       0       7       0       0       0       0       0       0       0       0       0       0       0       0
      Locals:         0       0       0       0       0       0       0       0       0       0       0       0       0       0       0       0
      Temps:          0       0       0       0       0       0       0       0       0       0       0       0       0       0       0       0
      Totals:         0       0       0       7       0       0       0       0       0       0       0       0       0       0       0       0
Total ram usage:        7 bytes
 Hardware stack levels used:    1
 Hardware stack levels required when called:   13
 This function calls:
		_I2C2_MasterTRBInsert
		_I2C2_MasterWriteTRBBuild
 This function is called by:
		_LM73TempSensorInitialize
		_LM73AcquisitionHandler
		_OLED_Command
		_OLED_PutChar
		_OLED_Data
 This function uses a non-reentrant model


 *************** function _I2C2_MasterWriteTRBBuild *****************
 Defined at:
		line 722 in file "mcc_generated_files/i2c2.c"
 Parameters:    Size  Location     Type
  ptrb            2    0[BANK2 ] PTR struct .
		 -> I2C2_MasterWrite@trBlock(5), 
  pdata           2    2[BANK2 ] PTR unsigned char 
		 -> OLED_PutChar@data_array(9), OLED_Data@data_array(2), OLED_Command@data_array(2), LM73TempSensorInitialize@output_data_array(2), 
		 -> NULL(0), 
  length          1    4[BANK2 ] unsigned char 
  address         2    5[BANK2 ] unsigned int 
 Auto vars:     Size  Location     Type
		None
 Return value:  Size  Location     Type
                  1    wreg      void 
 Registers used:
		wreg, fsr2l, fsr2h, status,2, status,0
 Tracked objects:
		On entry : 
		On exit  : 
		Unchanged: 
 Data sizes:     COMRAM   BANK0   BANK1   BANK2   BANK3   BANK4   BANK5   BANK6   BANK7   BANK8   BANK9  BANK10  BANK11  BANK12  BANK13  BANK14
      Params:         0       0       0       7       0       0       0       0       0       0       0       0       0       0       0       0
      Locals:         0       0       0       0       0       0       0       0       0       0       0       0       0       0       0       0
      Temps:          0       0       0       2       0       0       0       0       0       0       0       0       0       0       0       0
      Totals:         0       0       0       9       0       0       0       0       0       0       0       0       0       0       0       0
Total ram usage:        9 bytes
 Hardware stack levels used:    1
 Hardware stack levels required when called:   11
 This function calls:
		Nothing
 This function is called by:
		_I2C2_MasterWrite
 This function uses a non-reentrant model


 *************** function _I2C2_MasterRead *****************
 Defined at:
		line 622 in file "mcc_generated_files/i2c2.c"
 Parameters:    Size  Location     Type
  pdata           2    9[BANK2 ] PTR unsigned char 
		 -> LM73_temp_results(18), 
  length          1   11[BANK2 ] unsigned char 
  address         2   12[BANK2 ] unsigned int 
  pflag           2   14[BANK2 ] PTR enum E9433
		 -> I2C_STATUS(1), 
 Auto vars:     Size  Location     Type
		None
 Return value:  Size  Location     Type
                  1    wreg      void 
 Registers used:
		wreg, fsr2l, fsr2h, status,2, status,0, cstack
 Tracked objects:
		On entry : 
		On exit  : 
		Unchanged: 
 Data sizes:     COMRAM   BANK0   BANK1   BANK2   BANK3   BANK4   BANK5   BANK6   BANK7   BANK8   BANK9  BANK10  BANK11  BANK12  BANK13  BANK14
      Params:         0       0       0       7       0       0       0       0       0       0       0       0       0       0       0       0
      Locals:         0       0       0       0       0       0       0       0       0       0       0       0       0       0       0       0
      Temps:          0       0       0       0       0       0       0       0       0       0       0       0       0       0       0       0
      Totals:         0       0       0       7       0       0       0       0       0       0       0       0       0       0       0       0
Total ram usage:        7 bytes
 Hardware stack levels used:    1
 Hardware stack levels required when called:   13
 This function calls:
		_I2C2_MasterReadTRBBuild
		_I2C2_MasterTRBInsert
 This function is called by:
		_LM73AcquisitionHandler
 This function uses a non-reentrant model


 *************** function _I2C2_MasterTRBInsert *****************
 Defined at:
		line 655 in file "mcc_generated_files/i2c2.c"
 Parameters:    Size  Location     Type
  count           1    wreg     unsigned char 
  ptrb_list       2    0[BANK2 ] PTR struct .
		 -> I2C2_MasterRead@trBlock(5), I2C2_MasterWrite@trBlock(5), 
  pflag           2    2[BANK2 ] PTR enum E9433
		 -> I2C_STATUS(1), 
 Auto vars:     Size  Location     Type
  count           1    5[BANK2 ] unsigned char 
 Return value:  Size  Location     Type
                  1    wreg      void 
 Registers used:
		wreg, fsr2l, fsr2h, status,2, status,0, cstack
 Tracked objects:
		On entry : 
		On exit  : 
		Unchanged: 
 Data sizes:     COMRAM   BANK0   BANK1   BANK2   BANK3   BANK4   BANK5   BANK6   BANK7   BANK8   BANK9  BANK10  BANK11  BANK12  BANK13  BANK14
      Params:         0       0       0       4       0       0       0       0       0       0       0       0       0       0       0       0
      Locals:         0       0       0       1       0       0       0       0       0       0       0       0       0       0       0       0
      Temps:          0       0       0       1       0       0       0       0       0       0       0       0       0       0       0       0
      Totals:         0       0       0       6       0       0       0       0       0       0       0       0       0       0       0       0
Total ram usage:        6 bytes
 Hardware stack levels used:    1
 Hardware stack levels required when called:   12
 This function calls:
		_I2C2_WaitForLastPacketToComplete
 This function is called by:
		_I2C2_MasterWrite
		_I2C2_MasterRead
 This function uses a non-reentrant model


 *************** function _I2C2_WaitForLastPacketToComplete *****************
 Defined at:
		line 645 in file "mcc_generated_files/i2c2.c"
 Parameters:    Size  Location     Type
		None
 Auto vars:     Size  Location     Type
		None
 Return value:  Size  Location     Type
                  1    wreg      void 
 Registers used:
		wreg, status,2
 Tracked objects:
		On entry : 
		On exit  : 
		Unchanged: 
 Data sizes:     COMRAM   BANK0   BANK1   BANK2   BANK3   BANK4   BANK5   BANK6   BANK7   BANK8   BANK9  BANK10  BANK11  BANK12  BANK13  BANK14
      Params:         0       0       0       0       0       0       0       0       0       0       0       0       0       0       0       0
      Locals:         0       0       0       0       0       0       0       0       0       0       0       0       0       0       0       0
      Temps:          0       0       0       0       0       0       0       0       0       0       0       0       0       0       0       0
      Totals:         0       0       0       0       0       0       0       0       0       0       0       0       0       0       0       0
Total ram usage:        0 bytes
 Hardware stack levels used:    1
 Hardware stack levels required when called:   11
 This function calls:
		Nothing
 This function is called by:
		_I2C2_MasterTRBInsert
 This function uses a non-reentrant model


 *************** function _I2C2_MasterReadTRBBuild *****************
 Defined at:
		line 709 in file "mcc_generated_files/i2c2.c"
 Parameters:    Size  Location     Type
  ptrb            2    0[BANK2 ] PTR struct .
		 -> I2C2_MasterRead@trBlock(5), 
  pdata           2    2[BANK2 ] PTR unsigned char 
		 -> LM73_temp_results(18), 
  length          1    4[BANK2 ] unsigned char 
  address         2    5[BANK2 ] unsigned int 
 Auto vars:     Size  Location     Type
		None
 Return value:  Size  Location     Type
                  1    wreg      void 
 Registers used:
		wreg, fsr2l, fsr2h, status,2, status,0
 Tracked objects:
		On entry : 
		On exit  : 
		Unchanged: 
 Data sizes:     COMRAM   BANK0   BANK1   BANK2   BANK3   BANK4   BANK5   BANK6   BANK7   BANK8   BANK9  BANK10  BANK11  BANK12  BANK13  BANK14
      Params:         0       0       0       7       0       0       0       0       0       0       0       0       0       0       0       0
      Locals:         0       0       0       0       0       0       0       0       0       0       0       0       0       0       0       0
      Temps:          0       0       0       2       0       0       0       0       0       0       0       0       0       0       0       0
      Totals:         0       0       0       9       0       0       0       0       0       0       0       0       0       0       0       0
Total ram usage:        9 bytes
 Hardware stack levels used:    1
 Hardware stack levels required when called:   11
 This function calls:
		Nothing
 This function is called by:
		_I2C2_MasterRead
 This function uses a non-reentrant model


 *************** function _INTERRUPT_InterruptManagerLow *****************
 Defined at:
		line 138 in file "mcc_generated_files/interrupt_manager.c"
 Parameters:    Size  Location     Type
		None
 Auto vars:     Size  Location     Type
		None
 Return value:  Size  Location     Type
                  1    wreg      void 
 Registers used:
		wreg, fsr2l, fsr2h, status,2, status,0, pclath, tosl, prodl, prodh, cstack
 Tracked objects:
		On entry : 
		On exit  : 
		Unchanged: 
 Data sizes:     COMRAM   BANK0   BANK1   BANK2   BANK3   BANK4   BANK5   BANK6   BANK7   BANK8   BANK9  BANK10  BANK11  BANK12  BANK13  BANK14
      Params:         0       0       0       0       0       0       0       0       0       0       0       0       0       0       0       0
      Locals:         0       0       0       0       0       0       0       0       0       0       0       0       0       0       0       0
      Temps:          0       0       9       0       0       0       0       0       0       0       0       0       0       0       0       0
      Totals:         0       0       9       0       0       0       0       0       0       0       0       0       0       0       0       0
Total ram usage:        9 bytes
 Hardware stack levels used:    1
 Hardware stack levels required when called:   10
 This function calls:
		Absolute function
		_CCP2_CaptureISR
		_EUSART2_Transmit_ISR
		_I2C2_BusCollisionISR
		_I2C2_ISR
		_TMR2_ISR
		_TMR3_ISR
 This function is called by:
		Interrupt level 1
 This function uses a non-reentrant model


 *************** function _TMR3_ISR *****************
 Defined at:
		line 164 in file "mcc_generated_files/tmr3.c"
 Parameters:    Size  Location     Type
		None
 Auto vars:     Size  Location     Type
		None
 Return value:  Size  Location     Type
                  1    wreg      void 
 Registers used:
		wreg, status,2, status,0, pclath, tosl, cstack
 Tracked objects:
		On entry : 
		On exit  : 
		Unchanged: 
 Data sizes:     COMRAM   BANK0   BANK1   BANK2   BANK3   BANK4   BANK5   BANK6   BANK7   BANK8   BANK9  BANK10  BANK11  BANK12  BANK13  BANK14
      Params:         0       0       0       0       0       0       0       0       0       0       0       0       0       0       0       0
      Locals:         0       0       0       0       0       0       0       0       0       0       0       0       0       0       0       0
      Temps:          0       0       0       0       0       0       0       0       0       0       0       0       0       0       0       0
      Totals:         0       0       0       0       0       0       0       0       0       0       0       0       0       0       0       0
Total ram usage:        0 bytes
 Hardware stack levels used:    1
 Hardware stack levels required when called:    9
 This function calls:
		Absolute function
		_QIIdleChargedTimerHandler
		_TMR3_DefaultInterruptHandler
		i1_TMR3_WriteTimer
 This function is called by:
		_INTERRUPT_InterruptManagerLow
 This function uses a non-reentrant model


 *************** function _QIIdleChargedTimerHandler *****************
 Defined at:
		line 98 in file "NXQ_charge_state.c"
 Parameters:    Size  Location     Type
		None
 Auto vars:     Size  Location     Type
		None
 Return value:  Size  Location     Type
                  1    wreg      void 
 Registers used:
		wreg, status,2, cstack
 Tracked objects:
		On entry : 
		On exit  : 
		Unchanged: 
 Data sizes:     COMRAM   BANK0   BANK1   BANK2   BANK3   BANK4   BANK5   BANK6   BANK7   BANK8   BANK9  BANK10  BANK11  BANK12  BANK13  BANK14
      Params:         0       0       0       0       0       0       0       0       0       0       0       0       0       0       0       0
      Locals:         0       0       0       0       0       0       0       0       0       0       0       0       0       0       0       0
      Temps:          0       0       0       0       0       0       0       0       0       0       0       0       0       0       0       0
      Totals:         0       0       0       0       0       0       0       0       0       0       0       0       0       0       0       0
Total ram usage:        0 bytes
 Hardware stack levels used:    1
 Hardware stack levels required when called:    8
 This function calls:
		i1_TMR3_Reload
		i1_TMR3_StopTimer
 This function is called by:
		_main
		_TMR3_ISR
 This function uses a non-reentrant model


 *************** function _TMR3_DefaultInterruptHandler *****************
 Defined at:
		line 182 in file "mcc_generated_files/tmr3.c"
 Parameters:    Size  Location     Type
		None
 Auto vars:     Size  Location     Type
		None
 Return value:  Size  Location     Type
                  1    wreg      void 
 Registers used:
		None
 Tracked objects:
		On entry : 
		On exit  : 
		Unchanged: 
 Data sizes:     COMRAM   BANK0   BANK1   BANK2   BANK3   BANK4   BANK5   BANK6   BANK7   BANK8   BANK9  BANK10  BANK11  BANK12  BANK13  BANK14
      Params:         0       0       0       0       0       0       0       0       0       0       0       0       0       0       0       0
      Locals:         0       0       0       0       0       0       0       0       0       0       0       0       0       0       0       0
      Temps:          0       0       0       0       0       0       0       0       0       0       0       0       0       0       0       0
      Totals:         0       0       0       0       0       0       0       0       0       0       0       0       0       0       0       0
Total ram usage:        0 bytes
 Hardware stack levels used:    1
 Hardware stack levels required when called:    6
 This function calls:
		Nothing
 This function is called by:
		_TMR3_Initialize
		_TMR3_ISR
 This function uses a non-reentrant model


 *************** function i1_TMR3_StopTimer *****************
 Defined at:
		line 105 in file "mcc_generated_files/tmr3.c"
 Parameters:    Size  Location     Type
		None
 Auto vars:     Size  Location     Type
		None
 Return value:  Size  Location     Type
                  1    wreg      void 
 Registers used:
		None
 Tracked objects:
		On entry : 
		On exit  : 
		Unchanged: 
 Data sizes:     COMRAM   BANK0   BANK1   BANK2   BANK3   BANK4   BANK5   BANK6   BANK7   BANK8   BANK9  BANK10  BANK11  BANK12  BANK13  BANK14
      Params:         0       0       0       0       0       0       0       0       0       0       0       0       0       0       0       0
      Locals:         0       0       0       0       0       0       0       0       0       0       0       0       0       0       0       0
      Temps:          0       0       0       0       0       0       0       0       0       0       0       0       0       0       0       0
      Totals:         0       0       0       0       0       0       0       0       0       0       0       0       0       0       0       0
Total ram usage:        0 bytes
 Hardware stack levels used:    1
 Hardware stack levels required when called:    6
 This function calls:
		Nothing
 This function is called by:
		_QIIdleChargedTimerHandler
 This function uses a non-reentrant model


 *************** function i1_TMR3_Reload *****************
 Defined at:
		line 149 in file "mcc_generated_files/tmr3.c"
 Parameters:    Size  Location     Type
		None
 Auto vars:     Size  Location     Type
		None
 Return value:  Size  Location     Type
                  1    wreg      void 
 Registers used:
		wreg, status,2, cstack
 Tracked objects:
		On entry : 
		On exit  : 
		Unchanged: 
 Data sizes:     COMRAM   BANK0   BANK1   BANK2   BANK3   BANK4   BANK5   BANK6   BANK7   BANK8   BANK9  BANK10  BANK11  BANK12  BANK13  BANK14
      Params:         0       0       0       0       0       0       0       0       0       0       0       0       0       0       0       0
      Locals:         0       0       0       0       0       0       0       0       0       0       0       0       0       0       0       0
      Temps:          0       0       0       0       0       0       0       0       0       0       0       0       0       0       0       0
      Totals:         0       0       0       0       0       0       0       0       0       0       0       0       0       0       0       0
Total ram usage:        0 bytes
 Hardware stack levels used:    1
 Hardware stack levels required when called:    7
 This function calls:
		i1_TMR3_WriteTimer
 This function is called by:
		_QIIdleChargedTimerHandler
 This function uses a non-reentrant model


 *************** function i1_TMR3_WriteTimer *****************
 Defined at:
		line 127 in file "mcc_generated_files/tmr3.c"
 Parameters:    Size  Location     Type
  timerVal        2    0[BANK1 ] unsigned int 
 Auto vars:     Size  Location     Type
		None
 Return value:  Size  Location     Type
                  1    wreg      void 
 Registers used:
		wreg, status,2
 Tracked objects:
		On entry : 
		On exit  : 
		Unchanged: 
 Data sizes:     COMRAM   BANK0   BANK1   BANK2   BANK3   BANK4   BANK5   BANK6   BANK7   BANK8   BANK9  BANK10  BANK11  BANK12  BANK13  BANK14
      Params:         0       0       2       0       0       0       0       0       0       0       0       0       0       0       0       0
      Locals:         0       0       0       0       0       0       0       0       0       0       0       0       0       0       0       0
      Temps:          0       0       0       0       0       0       0       0       0       0       0       0       0       0       0       0
      Totals:         0       0       2       0       0       0       0       0       0       0       0       0       0       0       0       0
Total ram usage:        2 bytes
 Hardware stack levels used:    1
 Hardware stack levels required when called:    6
 This function calls:
		Nothing
 This function is called by:
		_TMR3_ISR
		i1_TMR3_Reload
 This function uses a non-reentrant model


 *************** function _TMR2_ISR *****************
 Defined at:
		line 165 in file "mcc_generated_files/tmr2.c"
 Parameters:    Size  Location     Type
		None
 Auto vars:     Size  Location     Type
		None
 Return value:  Size  Location     Type
                  1    wreg      void 
 Registers used:
		wreg, status,2, status,0, pclath, tosl, cstack
 Tracked objects:
		On entry : 
		On exit  : 
		Unchanged: 
 Data sizes:     COMRAM   BANK0   BANK1   BANK2   BANK3   BANK4   BANK5   BANK6   BANK7   BANK8   BANK9  BANK10  BANK11  BANK12  BANK13  BANK14
      Params:         0       0       0       0       0       0       0       0       0       0       0       0       0       0       0       0
      Locals:         0       0       0       0       0       0       0       0       0       0       0       0       0       0       0       0
      Temps:          0       0       0       0       0       0       0       0       0       0       0       0       0       0       0       0
      Totals:         0       0       0       0       0       0       0       0       0       0       0       0       0       0       0       0
Total ram usage:        0 bytes
 Hardware stack levels used:    1
 Hardware stack levels required when called:    9
 This function calls:
		Absolute function
		_ADC_acquisitionTimerHandler
		_TMR2_DefaultInterruptHandler
 This function is called by:
		_INTERRUPT_InterruptManagerLow
 This function uses a non-reentrant model


 *************** function _ADC_acquisitionTimerHandler *****************
 Defined at:
		line 135 in file "adc_postprocessing.c"
 Parameters:    Size  Location     Type
		None
 Auto vars:     Size  Location     Type
		None
 Return value:  Size  Location     Type
                  1    wreg      void 
 Registers used:
		wreg, status,2, cstack
 Tracked objects:
		On entry : 
		On exit  : 
		Unchanged: 
 Data sizes:     COMRAM   BANK0   BANK1   BANK2   BANK3   BANK4   BANK5   BANK6   BANK7   BANK8   BANK9  BANK10  BANK11  BANK12  BANK13  BANK14
      Params:         0       0       0       0       0       0       0       0       0       0       0       0       0       0       0       0
      Locals:         0       0       0       0       0       0       0       0       0       0       0       0       0       0       0       0
      Temps:          0       0       0       0       0       0       0       0       0       0       0       0       0       0       0       0
      Totals:         0       0       0       0       0       0       0       0       0       0       0       0       0       0       0       0
Total ram usage:        0 bytes
 Hardware stack levels used:    1
 Hardware stack levels required when called:    8
 This function calls:
		_ADCC_ClearAccumulator
		_ADCC_DischargeSampleCapacitor
		_ADCC_StartConversion
		_TMR2_StopTimer
 This function is called by:
		_main
		_TMR2_ISR
 This function uses a non-reentrant model


 *************** function _TMR2_DefaultInterruptHandler *****************
 Defined at:
		line 182 in file "mcc_generated_files/tmr2.c"
 Parameters:    Size  Location     Type
		None
 Auto vars:     Size  Location     Type
		None
 Return value:  Size  Location     Type
                  1    wreg      void 
 Registers used:
		None
 Tracked objects:
		On entry : 
		On exit  : 
		Unchanged: 
 Data sizes:     COMRAM   BANK0   BANK1   BANK2   BANK3   BANK4   BANK5   BANK6   BANK7   BANK8   BANK9  BANK10  BANK11  BANK12  BANK13  BANK14
      Params:         0       0       0       0       0       0       0       0       0       0       0       0       0       0       0       0
      Locals:         0       0       0       0       0       0       0       0       0       0       0       0       0       0       0       0
      Temps:          0       0       0       0       0       0       0       0       0       0       0       0       0       0       0       0
      Totals:         0       0       0       0       0       0       0       0       0       0       0       0       0       0       0       0
Total ram usage:        0 bytes
 Hardware stack levels used:    1
 Hardware stack levels required when called:    6
 This function calls:
		Nothing
 This function is called by:
		_TMR2_Initialize
		_TMR2_ISR
 This function uses a non-reentrant model


 *************** function _TMR2_StopTimer *****************
 Defined at:
		line 125 in file "mcc_generated_files/tmr2.c"
 Parameters:    Size  Location     Type
		None
 Auto vars:     Size  Location     Type
		None
 Return value:  Size  Location     Type
                  1    wreg      void 
 Registers used:
		cstack
 Tracked objects:
		On entry : 
		On exit  : 
		Unchanged: 
 Data sizes:     COMRAM   BANK0   BANK1   BANK2   BANK3   BANK4   BANK5   BANK6   BANK7   BANK8   BANK9  BANK10  BANK11  BANK12  BANK13  BANK14
      Params:         0       0       0       0       0       0       0       0       0       0       0       0       0       0       0       0
      Locals:         0       0       0       0       0       0       0       0       0       0       0       0       0       0       0       0
      Temps:          0       0       0       0       0       0       0       0       0       0       0       0       0       0       0       0
      Totals:         0       0       0       0       0       0       0       0       0       0       0       0       0       0       0       0
Total ram usage:        0 bytes
 Hardware stack levels used:    1
 Hardware stack levels required when called:    7
 This function calls:
		_TMR2_Stop
 This function is called by:
		_ADC_acquisitionTimerHandler
 This function uses a non-reentrant model


 *************** function _TMR2_Stop *****************
 Defined at:
		line 119 in file "mcc_generated_files/tmr2.c"
 Parameters:    Size  Location     Type
		None
 Auto vars:     Size  Location     Type
		None
 Return value:  Size  Location     Type
                  1    wreg      void 
 Registers used:
		None
 Tracked objects:
		On entry : 
		On exit  : 
		Unchanged: 
 Data sizes:     COMRAM   BANK0   BANK1   BANK2   BANK3   BANK4   BANK5   BANK6   BANK7   BANK8   BANK9  BANK10  BANK11  BANK12  BANK13  BANK14
      Params:         0       0       0       0       0       0       0       0       0       0       0       0       0       0       0       0
      Locals:         0       0       0       0       0       0       0       0       0       0       0       0       0       0       0       0
      Temps:          0       0       0       0       0       0       0       0       0       0       0       0       0       0       0       0
      Totals:         0       0       0       0       0       0       0       0       0       0       0       0       0       0       0       0
Total ram usage:        0 bytes
 Hardware stack levels used:    1
 Hardware stack levels required when called:    6
 This function calls:
		Nothing
 This function is called by:
		_TMR2_StopTimer
 This function uses a non-reentrant model


 *************** function _ADCC_StartConversion *****************
 Defined at:
		line 112 in file "mcc_generated_files/adcc.c"
 Parameters:    Size  Location     Type
  channel         1    wreg     enum E9432
 Auto vars:     Size  Location     Type
  channel         1    0[BANK1 ] enum E9432
 Return value:  Size  Location     Type
                  1    wreg      void 
 Registers used:
		wreg
 Tracked objects:
		On entry : 
		On exit  : 
		Unchanged: 
 Data sizes:     COMRAM   BANK0   BANK1   BANK2   BANK3   BANK4   BANK5   BANK6   BANK7   BANK8   BANK9  BANK10  BANK11  BANK12  BANK13  BANK14
      Params:         0       0       0       0       0       0       0       0       0       0       0       0       0       0       0       0
      Locals:         0       0       1       0       0       0       0       0       0       0       0       0       0       0       0       0
      Temps:          0       0       0       0       0       0       0       0       0       0       0       0       0       0       0       0
      Totals:         0       0       1       0       0       0       0       0       0       0       0       0       0       0       0       0
Total ram usage:        1 bytes
 Hardware stack levels used:    1
 Hardware stack levels required when called:    6
 This function calls:
		Nothing
 This function is called by:
		_ADC_acquisitionTimerHandler
 This function uses a non-reentrant model


 *************** function _ADCC_DischargeSampleCapacitor *****************
 Defined at:
		line 174 in file "mcc_generated_files/adcc.c"
 Parameters:    Size  Location     Type
		None
 Auto vars:     Size  Location     Type
		None
 Return value:  Size  Location     Type
                  1    wreg      void 
 Registers used:
		wreg, status,2
 Tracked objects:
		On entry : 
		On exit  : 
		Unchanged: 
 Data sizes:     COMRAM   BANK0   BANK1   BANK2   BANK3   BANK4   BANK5   BANK6   BANK7   BANK8   BANK9  BANK10  BANK11  BANK12  BANK13  BANK14
      Params:         0       0       0       0       0       0       0       0       0       0       0       0       0       0       0       0
      Locals:         0       0       0       0       0       0       0       0       0       0       0       0       0       0       0       0
      Temps:          0       0       0       0       0       0       0       0       0       0       0       0       0       0       0       0
      Totals:         0       0       0       0       0       0       0       0       0       0       0       0       0       0       0       0
Total ram usage:        0 bytes
 Hardware stack levels used:    1
 Hardware stack levels required when called:    6
 This function calls:
		Nothing
 This function is called by:
		_ADC_acquisitionTimerHandler
 This function uses a non-reentrant model


 *************** function _ADCC_ClearAccumulator *****************
 Defined at:
		line 204 in file "mcc_generated_files/adcc.c"
 Parameters:    Size  Location     Type
		None
 Auto vars:     Size  Location     Type
		None
 Return value:  Size  Location     Type
                  1    wreg      void 
 Registers used:
		None
 Tracked objects:
		On entry : 
		On exit  : 
		Unchanged: 
 Data sizes:     COMRAM   BANK0   BANK1   BANK2   BANK3   BANK4   BANK5   BANK6   BANK7   BANK8   BANK9  BANK10  BANK11  BANK12  BANK13  BANK14
      Params:         0       0       0       0       0       0       0       0       0       0       0       0       0       0       0       0
      Locals:         0       0       0       0       0       0       0       0       0       0       0       0       0       0       0       0
      Temps:          0       0       0       0       0       0       0       0       0       0       0       0       0       0       0       0
      Totals:         0       0       0       0       0       0       0       0       0       0       0       0       0       0       0       0
Total ram usage:        0 bytes
 Hardware stack levels used:    1
 Hardware stack levels required when called:    6
 This function calls:
		Nothing
 This function is called by:
		_ADC_acquisitionTimerHandler
 This function uses a non-reentrant model


 *************** function _I2C2_ISR *****************
 Defined at:
		line 236 in file "mcc_generated_files/i2c2.c"
 Parameters:    Size  Location     Type
		None
 Auto vars:     Size  Location     Type
		None
 Return value:  Size  Location     Type
                  1    wreg      void 
 Registers used:
		wreg, fsr2l, fsr2h, status,2, status,0, cstack
 Tracked objects:
		On entry : 
		On exit  : 
		Unchanged: 
 Data sizes:     COMRAM   BANK0   BANK1   BANK2   BANK3   BANK4   BANK5   BANK6   BANK7   BANK8   BANK9  BANK10  BANK11  BANK12  BANK13  BANK14
      Params:         0       0       0       0       0       0       0       0       0       0       0       0       0       0       0       0
      Locals:         0       0       0       0       0       0       0       0       0       0       0       0       0       0       0       0
      Temps:          0       0       2       0       0       0       0       0       0       0       0       0       0       0       0       0
      Totals:         0       0       2       0       0       0       0       0       0       0       0       0       0       0       0       0
Total ram usage:        2 bytes
 Hardware stack levels used:    1
 Hardware stack levels required when called:    7
 This function calls:
		_I2C2_FunctionComplete
		_I2C2_Stop
 This function is called by:
		_INTERRUPT_InterruptManagerLow
 This function uses a non-reentrant model


 *************** function _I2C2_Stop *****************
 Defined at:
		line 584 in file "mcc_generated_files/i2c2.c"
 Parameters:    Size  Location     Type
  completion_c    1    wreg     enum E9433
 Auto vars:     Size  Location     Type
  completion_c    1    2[BANK1 ] enum E9433
 Return value:  Size  Location     Type
                  1    wreg      void 
 Registers used:
		wreg, fsr2l, fsr2h, status,2, status,0
 Tracked objects:
		On entry : 
		On exit  : 
		Unchanged: 
 Data sizes:     COMRAM   BANK0   BANK1   BANK2   BANK3   BANK4   BANK5   BANK6   BANK7   BANK8   BANK9  BANK10  BANK11  BANK12  BANK13  BANK14
      Params:         0       0       0       0       0       0       0       0       0       0       0       0       0       0       0       0
      Locals:         0       0       1       0       0       0       0       0       0       0       0       0       0       0       0       0
      Temps:          0       0       2       0       0       0       0       0       0       0       0       0       0       0       0       0
      Totals:         0       0       3       0       0       0       0       0       0       0       0       0       0       0       0       0
Total ram usage:        3 bytes
 Hardware stack levels used:    1
 Hardware stack levels required when called:    6
 This function calls:
		Nothing
 This function is called by:
		_I2C2_ISR
 This function uses a non-reentrant model


 *************** function _I2C2_FunctionComplete *****************
 Defined at:
		line 566 in file "mcc_generated_files/i2c2.c"
 Parameters:    Size  Location     Type
		None
 Auto vars:     Size  Location     Type
		None
 Return value:  Size  Location     Type
                  1    wreg      void 
 Registers used:
		wreg, status,2, status,0
 Tracked objects:
		On entry : 
		On exit  : 
		Unchanged: 
 Data sizes:     COMRAM   BANK0   BANK1   BANK2   BANK3   BANK4   BANK5   BANK6   BANK7   BANK8   BANK9  BANK10  BANK11  BANK12  BANK13  BANK14
      Params:         0       0       0       0       0       0       0       0       0       0       0       0       0       0       0       0
      Locals:         0       0       0       0       0       0       0       0       0       0       0       0       0       0       0       0
      Temps:          0       0       0       0       0       0       0       0       0       0       0       0       0       0       0       0
      Totals:         0       0       0       0       0       0       0       0       0       0       0       0       0       0       0       0
Total ram usage:        0 bytes
 Hardware stack levels used:    1
 Hardware stack levels required when called:    6
 This function calls:
		Nothing
 This function is called by:
		_I2C2_ISR
 This function uses a non-reentrant model


 *************** function _I2C2_BusCollisionISR *****************
 Defined at:
		line 743 in file "mcc_generated_files/i2c2.c"
 Parameters:    Size  Location     Type
		None
 Auto vars:     Size  Location     Type
		None
 Return value:  Size  Location     Type
                  1    wreg      void 
 Registers used:
		wreg, status,2
 Tracked objects:
		On entry : 
		On exit  : 
		Unchanged: 
 Data sizes:     COMRAM   BANK0   BANK1   BANK2   BANK3   BANK4   BANK5   BANK6   BANK7   BANK8   BANK9  BANK10  BANK11  BANK12  BANK13  BANK14
      Params:         0       0       0       0       0       0       0       0       0       0       0       0       0       0       0       0
      Locals:         0       0       0       0       0       0       0       0       0       0       0       0       0       0       0       0
      Temps:          0       0       0       0       0       0       0       0       0       0       0       0       0       0       0       0
      Totals:         0       0       0       0       0       0       0       0       0       0       0       0       0       0       0       0
Total ram usage:        0 bytes
 Hardware stack levels used:    1
 Hardware stack levels required when called:    6
 This function calls:
		Nothing
 This function is called by:
		_INTERRUPT_InterruptManagerLow
 This function uses a non-reentrant model


 *************** function _EUSART2_Transmit_ISR *****************
 Defined at:
		line 187 in file "mcc_generated_files/eusart2.c"
 Parameters:    Size  Location     Type
		None
 Auto vars:     Size  Location     Type
		None
 Return value:  Size  Location     Type
                  1    wreg      void 
 Registers used:
		wreg, fsr2l, fsr2h, status,2, status,0
 Tracked objects:
		On entry : 
		On exit  : 
		Unchanged: 
 Data sizes:     COMRAM   BANK0   BANK1   BANK2   BANK3   BANK4   BANK5   BANK6   BANK7   BANK8   BANK9  BANK10  BANK11  BANK12  BANK13  BANK14
      Params:         0       0       0       0       0       0       0       0       0       0       0       0       0       0       0       0
      Locals:         0       0       0       0       0       0       0       0       0       0       0       0       0       0       0       0
      Temps:          0       0       0       0       0       0       0       0       0       0       0       0       0       0       0       0
      Totals:         0       0       0       0       0       0       0       0       0       0       0       0       0       0       0       0
Total ram usage:        0 bytes
 Hardware stack levels used:    1
 Hardware stack levels required when called:    6
 This function calls:
		Nothing
 This function is called by:
		_EUSART2_Initialize
		_INTERRUPT_InterruptManagerLow
 This function uses a non-reentrant model


 *************** function _CCP2_CaptureISR *****************
 Defined at:
		line 89 in file "mcc_generated_files/ccp2.c"
 Parameters:    Size  Location     Type
		None
 Auto vars:     Size  Location     Type
  module          2   86[BANK1 ] struct CCPR2Reg_tag
 Return value:  Size  Location     Type
                  1    wreg      void 
 Registers used:
		wreg, status,2, status,0, prodl, prodh, cstack
 Tracked objects:
		On entry : 
		On exit  : 
		Unchanged: 
 Data sizes:     COMRAM   BANK0   BANK1   BANK2   BANK3   BANK4   BANK5   BANK6   BANK7   BANK8   BANK9  BANK10  BANK11  BANK12  BANK13  BANK14
      Params:         0       0       0       0       0       0       0       0       0       0       0       0       0       0       0       0
      Locals:         0       0       2       0       0       0       0       0       0       0       0       0       0       0       0       0
      Temps:          0       0       0       0       0       0       0       0       0       0       0       0       0       0       0       0
      Totals:         0       0       2       0       0       0       0       0       0       0       0       0       0       0       0       0
Total ram usage:        2 bytes
 Hardware stack levels used:    1
 Hardware stack levels required when called:    9
 This function calls:
		_CCP2_CallBack
 This function is called by:
		_INTERRUPT_InterruptManagerLow
 This function uses a non-reentrant model


 *************** function _CCP2_CallBack *****************
 Defined at:
		line 105 in file "mcc_generated_files/ccp2.c"
 Parameters:    Size  Location     Type
  capturedValu    2   84[BANK1 ] unsigned int 
 Auto vars:     Size  Location     Type
		None
 Return value:  Size  Location     Type
                  1    wreg      void 
 Registers used:
		wreg, status,2, status,0, prodl, prodh, cstack
 Tracked objects:
		On entry : 
		On exit  : 
		Unchanged: 
 Data sizes:     COMRAM   BANK0   BANK1   BANK2   BANK3   BANK4   BANK5   BANK6   BANK7   BANK8   BANK9  BANK10  BANK11  BANK12  BANK13  BANK14
      Params:         0       0       2       0       0       0       0       0       0       0       0       0       0       0       0       0
      Locals:         0       0       0       0       0       0       0       0       0       0       0       0       0       0       0       0
      Temps:          0       0       0       0       0       0       0       0       0       0       0       0       0       0       0       0
      Totals:         0       0       2       0       0       0       0       0       0       0       0       0       0       0       0       0
Total ram usage:        2 bytes
 Hardware stack levels used:    1
 Hardware stack levels required when called:    8
 This function calls:
		_freqMeasConvert
 This function is called by:
		_CCP2_CaptureISR
 This function uses a non-reentrant model


 *************** function _freqMeasConvert *****************
 Defined at:
		line 16 in file "freq_meas.c"
 Parameters:    Size  Location     Type
		None
 Auto vars:     Size  Location     Type
  qi_period       4   80[BANK1 ] void 
 Return value:  Size  Location     Type
                  1    wreg      void 
 Registers used:
		wreg, status,2, status,0, prodl, prodh, cstack
 Tracked objects:
		On entry : 
		On exit  : 
		Unchanged: 
 Data sizes:     COMRAM   BANK0   BANK1   BANK2   BANK3   BANK4   BANK5   BANK6   BANK7   BANK8   BANK9  BANK10  BANK11  BANK12  BANK13  BANK14
      Params:         0       0       0       0       0       0       0       0       0       0       0       0       0       0       0       0
      Locals:         0       0       4       0       0       0       0       0       0       0       0       0       0       0       0       0
      Temps:          0       0       0       0       0       0       0       0       0       0       0       0       0       0       0       0
      Totals:         0       0       4       0       0       0       0       0       0       0       0       0       0       0       0       0
Total ram usage:        4 bytes
 Hardware stack levels used:    1
 Hardware stack levels required when called:    7
 This function calls:
		i1___fladd
		i1___fldiv
		i1___flmul
		i1___xxtofl
 This function is called by:
		_CCP2_CallBack
 This function uses a non-reentrant model


 *************** function i1___xxtofl *****************
 Defined at:
		line 10 in file "C:\Program Files (x86)\Microchip\xc8\v2.05\pic\sources\c90\common\xxtofl.c"
 Parameters:    Size  Location     Type
  sign            1    wreg     unsigned char 
  val             4    0[BANK1 ] long 
 Auto vars:     Size  Location     Type
  sign            1    8[BANK1 ] unsigned char 
  __xxtofl        4   10[BANK1 ] unsigned long 
  __xxtofl        1    9[BANK1 ] unsigned char 
 Return value:  Size  Location     Type
                  4    0[BANK1 ] unsigned char 
 Registers used:
		wreg, status,2, status,0
 Tracked objects:
		On entry : 
		On exit  : 
		Unchanged: 
 Data sizes:     COMRAM   BANK0   BANK1   BANK2   BANK3   BANK4   BANK5   BANK6   BANK7   BANK8   BANK9  BANK10  BANK11  BANK12  BANK13  BANK14
      Params:         0       0       4       0       0       0       0       0       0       0       0       0       0       0       0       0
      Locals:         0       0       6       0       0       0       0       0       0       0       0       0       0       0       0       0
      Temps:          0       0       4       0       0       0       0       0       0       0       0       0       0       0       0       0
      Totals:         0       0      14       0       0       0       0       0       0       0       0       0       0       0       0       0
Total ram usage:       14 bytes
 Hardware stack levels used:    1
 Hardware stack levels required when called:    6
 This function calls:
		Nothing
 This function is called by:
		_freqMeasConvert
 This function uses a non-reentrant model


 *************** function i1___flmul *****************
 Defined at:
		line 8 in file "C:\Program Files (x86)\Microchip\xc8\v2.05\pic\sources\c90\common\sprcmul.c"
 Parameters:    Size  Location     Type
  b               4   55[BANK1 ] unsigned char 
  a               4   59[BANK1 ] unsigned char 
 Auto vars:     Size  Location     Type
  __flmul         4   74[BANK1 ] struct .
  __flmul         4   68[BANK1 ] unsigned long 
  __flmul         2   78[BANK1 ] struct .
  __flmul         1   73[BANK1 ] unsigned char 
  __flmul         1   72[BANK1 ] unsigned char 
  __flmul         1   67[BANK1 ] unsigned char 
 Return value:  Size  Location     Type
                  4   55[BANK1 ] unsigned char 
 Registers used:
		wreg, status,2, status,0, prodl, prodh
 Tracked objects:
		On entry : 
		On exit  : 
		Unchanged: 
 Data sizes:     COMRAM   BANK0   BANK1   BANK2   BANK3   BANK4   BANK5   BANK6   BANK7   BANK8   BANK9  BANK10  BANK11  BANK12  BANK13  BANK14
      Params:         0       0       8       0       0       0       0       0       0       0       0       0       0       0       0       0
      Locals:         0       0      13       0       0       0       0       0       0       0       0       0       0       0       0       0
      Temps:          0       0       4       0       0       0       0       0       0       0       0       0       0       0       0       0
      Totals:         0       0      25       0       0       0       0       0       0       0       0       0       0       0       0       0
Total ram usage:       25 bytes
 Hardware stack levels used:    1
 Hardware stack levels required when called:    6
 This function calls:
		Nothing
 This function is called by:
		_freqMeasConvert
 This function uses a non-reentrant model


 *************** function i1___fldiv *****************
 Defined at:
		line 11 in file "C:\Program Files (x86)\Microchip\xc8\v2.05\pic\sources\c90\common\sprcdiv.c"
 Parameters:    Size  Location     Type
  b               4   30[BANK1 ] unsigned char 
  a               4   34[BANK1 ] unsigned char 
 Auto vars:     Size  Location     Type
  __fldiv         4   49[BANK1 ] unsigned long 
  __fldiv         4   42[BANK1 ] unsigned long 
  __fldiv         2   47[BANK1 ] int 
  __fldiv         1   54[BANK1 ] unsigned char 
  __fldiv         1   53[BANK1 ] unsigned char 
  __fldiv         1   46[BANK1 ] unsigned char 
 Return value:  Size  Location     Type
                  4   30[BANK1 ] unsigned char 
 Registers used:
		wreg, status,2, status,0
 Tracked objects:
		On entry : 
		On exit  : 
		Unchanged: 
 Data sizes:     COMRAM   BANK0   BANK1   BANK2   BANK3   BANK4   BANK5   BANK6   BANK7   BANK8   BANK9  BANK10  BANK11  BANK12  BANK13  BANK14
      Params:         0       0       8       0       0       0       0       0       0       0       0       0       0       0       0       0
      Locals:         0       0      13       0       0       0       0       0       0       0       0       0       0       0       0       0
      Temps:          0       0       4       0       0       0       0       0       0       0       0       0       0       0       0       0
      Totals:         0       0      25       0       0       0       0       0       0       0       0       0       0       0       0       0
Total ram usage:       25 bytes
 Hardware stack levels used:    1
 Hardware stack levels required when called:    6
 This function calls:
		Nothing
 This function is called by:
		_freqMeasConvert
 This function uses a non-reentrant model


 *************** function i1___fladd *****************
 Defined at:
		line 10 in file "C:\Program Files (x86)\Microchip\xc8\v2.05\pic\sources\c90\common\sprcadd.c"
 Parameters:    Size  Location     Type
  b               4   14[BANK1 ] unsigned char 
  a               4   18[BANK1 ] unsigned char 
 Auto vars:     Size  Location     Type
  __fladd         1   29[BANK1 ] unsigned char 
  __fladd         1   28[BANK1 ] unsigned char 
  __fladd         1   27[BANK1 ] unsigned char 
  __fladd         1   26[BANK1 ] unsigned char 
 Return value:  Size  Location     Type
                  4   14[BANK1 ] unsigned char 
 Registers used:
		wreg, status,2, status,0
 Tracked objects:
		On entry : 
		On exit  : 
		Unchanged: 
 Data sizes:     COMRAM   BANK0   BANK1   BANK2   BANK3   BANK4   BANK5   BANK6   BANK7   BANK8   BANK9  BANK10  BANK11  BANK12  BANK13  BANK14
      Params:         0       0       8       0       0       0       0       0       0       0       0       0       0       0       0       0
      Locals:         0       0       4       0       0       0       0       0       0       0       0       0       0       0       0       0
      Temps:          0       0       4       0       0       0       0       0       0       0       0       0       0       0       0       0
      Totals:         0       0      16       0       0       0       0       0       0       0       0       0       0       0       0       0
Total ram usage:       16 bytes
 Hardware stack levels used:    1
 Hardware stack levels required when called:    6
 This function calls:
		Nothing
 This function is called by:
		_freqMeasConvert
 This function uses a non-reentrant model


 *************** function _INTERRUPT_InterruptManagerHigh *****************
 Defined at:
		line 101 in file "mcc_generated_files/interrupt_manager.c"
 Parameters:    Size  Location     Type
		None
 Auto vars:     Size  Location     Type
		None
 Return value:  Size  Location     Type
                  1    wreg      void 
 Registers used:
		wreg, fsr0l, fsr0h, fsr2l, fsr2h, status,2, status,0, pclath, tosl, tblptrl, tblptrh, tblptru, prodl, prodh, cstack
 Tracked objects:
		On entry : 
		On exit  : 
		Unchanged: 
 Data sizes:     COMRAM   BANK0   BANK1   BANK2   BANK3   BANK4   BANK5   BANK6   BANK7   BANK8   BANK9  BANK10  BANK11  BANK12  BANK13  BANK14
      Params:         0       0       0       0       0       0       0       0       0       0       0       0       0       0       0       0
      Locals:         0       0       0       0       0       0       0       0       0       0       0       0       0       0       0       0
      Temps:          0      12       0       0       0       0       0       0       0       0       0       0       0       0       0       0
      Totals:         0      12       0       0       0       0       0       0       0       0       0       0       0       0       0       0
Total ram usage:       12 bytes
 Hardware stack levels used:    1
 Hardware stack levels required when called:    5
 This function calls:
		Absolute function
		_ADCC_ThresholdISR
		_EUSART2_Receive_ISR
		_INT1_ISR
		_INT2_ISR
		_PIN_MANAGER_IOC
		_TMR0_ISR
		_TMR1_ISR
 This function is called by:
		Interrupt level 2
 This function uses a non-reentrant model


 *************** function _TMR1_ISR *****************
 Defined at:
		line 164 in file "mcc_generated_files/tmr1.c"
 Parameters:    Size  Location     Type
		None
 Auto vars:     Size  Location     Type
		None
 Return value:  Size  Location     Type
                  1    wreg      void 
 Registers used:
		wreg, status,2, status,0, pclath, tosl, cstack
 Tracked objects:
		On entry : 
		On exit  : 
		Unchanged: 
 Data sizes:     COMRAM   BANK0   BANK1   BANK2   BANK3   BANK4   BANK5   BANK6   BANK7   BANK8   BANK9  BANK10  BANK11  BANK12  BANK13  BANK14
      Params:         0       0       0       0       0       0       0       0       0       0       0       0       0       0       0       0
      Locals:         0       0       0       0       0       0       0       0       0       0       0       0       0       0       0       0
      Temps:          0       0       0       0       0       0       0       0       0       0       0       0       0       0       0       0
      Totals:         0       0       0       0       0       0       0       0       0       0       0       0       0       0       0       0
Total ram usage:        0 bytes
 Hardware stack levels used:    1
 Hardware stack levels required when called:    3
 This function calls:
		Absolute function
		_QIErrorTimerHandler
		_TMR1_DefaultInterruptHandler
		i2_TMR1_WriteTimer
 This function is called by:
		_INTERRUPT_InterruptManagerHigh
 This function uses a non-reentrant model


 *************** function _QIErrorTimerHandler *****************
 Defined at:
		line 118 in file "NXQ_charge_state.c"
 Parameters:    Size  Location     Type
		None
 Auto vars:     Size  Location     Type
		None
 Return value:  Size  Location     Type
                  1    wreg      void 
 Registers used:
		wreg, status,2, cstack
 Tracked objects:
		On entry : 
		On exit  : 
		Unchanged: 
 Data sizes:     COMRAM   BANK0   BANK1   BANK2   BANK3   BANK4   BANK5   BANK6   BANK7   BANK8   BANK9  BANK10  BANK11  BANK12  BANK13  BANK14
      Params:         0       0       0       0       0       0       0       0       0       0       0       0       0       0       0       0
      Locals:         0       0       0       0       0       0       0       0       0       0       0       0       0       0       0       0
      Temps:          0       0       0       0       0       0       0       0       0       0       0       0       0       0       0       0
      Totals:         0       0       0       0       0       0       0       0       0       0       0       0       0       0       0       0
Total ram usage:        0 bytes
 Hardware stack levels used:    1
 Hardware stack levels required when called:    2
 This function calls:
		i2_TMR1_Reload
		i2_TMR1_StopTimer
 This function is called by:
		_main
		_TMR1_ISR
 This function uses a non-reentrant model


 *************** function _TMR1_DefaultInterruptHandler *****************
 Defined at:
		line 182 in file "mcc_generated_files/tmr1.c"
 Parameters:    Size  Location     Type
		None
 Auto vars:     Size  Location     Type
		None
 Return value:  Size  Location     Type
                  1    wreg      void 
 Registers used:
		None
 Tracked objects:
		On entry : 
		On exit  : 
		Unchanged: 
 Data sizes:     COMRAM   BANK0   BANK1   BANK2   BANK3   BANK4   BANK5   BANK6   BANK7   BANK8   BANK9  BANK10  BANK11  BANK12  BANK13  BANK14
      Params:         0       0       0       0       0       0       0       0       0       0       0       0       0       0       0       0
      Locals:         0       0       0       0       0       0       0       0       0       0       0       0       0       0       0       0
      Temps:          0       0       0       0       0       0       0       0       0       0       0       0       0       0       0       0
      Totals:         0       0       0       0       0       0       0       0       0       0       0       0       0       0       0       0
Total ram usage:        0 bytes
 Hardware stack levels used:    1
 This function calls:
		Nothing
 This function is called by:
		_TMR1_Initialize
		_TMR1_ISR
 This function uses a non-reentrant model


 *************** function i2_TMR1_StopTimer *****************
 Defined at:
		line 105 in file "mcc_generated_files/tmr1.c"
 Parameters:    Size  Location     Type
		None
 Auto vars:     Size  Location     Type
		None
 Return value:  Size  Location     Type
                  1    wreg      void 
 Registers used:
		None
 Tracked objects:
		On entry : 
		On exit  : 
		Unchanged: 
 Data sizes:     COMRAM   BANK0   BANK1   BANK2   BANK3   BANK4   BANK5   BANK6   BANK7   BANK8   BANK9  BANK10  BANK11  BANK12  BANK13  BANK14
      Params:         0       0       0       0       0       0       0       0       0       0       0       0       0       0       0       0
      Locals:         0       0       0       0       0       0       0       0       0       0       0       0       0       0       0       0
      Temps:          0       0       0       0       0       0       0       0       0       0       0       0       0       0       0       0
      Totals:         0       0       0       0       0       0       0       0       0       0       0       0       0       0       0       0
Total ram usage:        0 bytes
 Hardware stack levels used:    1
 This function calls:
		Nothing
 This function is called by:
		_QIErrorTimerHandler
 This function uses a non-reentrant model


 *************** function _TMR0_ISR *****************
 Defined at:
		line 121 in file "mcc_generated_files/tmr0.c"
 Parameters:    Size  Location     Type
		None
 Auto vars:     Size  Location     Type
		None
 Return value:  Size  Location     Type
                  1    wreg      void 
 Registers used:
		wreg, status,2, status,0, pclath, tosl, cstack
 Tracked objects:
		On entry : 
		On exit  : 
		Unchanged: 
 Data sizes:     COMRAM   BANK0   BANK1   BANK2   BANK3   BANK4   BANK5   BANK6   BANK7   BANK8   BANK9  BANK10  BANK11  BANK12  BANK13  BANK14
      Params:         0       0       0       0       0       0       0       0       0       0       0       0       0       0       0       0
      Locals:         0       0       0       0       0       0       0       0       0       0       0       0       0       0       0       0
      Temps:          0       0       0       0       0       0       0       0       0       0       0       0       0       0       0       0
      Totals:         0       0       0       0       0       0       0       0       0       0       0       0       0       0       0       0
Total ram usage:        0 bytes
 Hardware stack levels used:    1
 Hardware stack levels required when called:    2
 This function calls:
		Absolute function
		_TMR0_DefaultInterruptHandler
		_heartbeatTimerHandler
 This function is called by:
		_INTERRUPT_InterruptManagerHigh
 This function uses a non-reentrant model


 *************** function _TMR0_DefaultInterruptHandler *****************
 Defined at:
		line 138 in file "mcc_generated_files/tmr0.c"
 Parameters:    Size  Location     Type
		None
 Auto vars:     Size  Location     Type
		None
 Return value:  Size  Location     Type
                  1    wreg      void 
 Registers used:
		None
 Tracked objects:
		On entry : 
		On exit  : 
		Unchanged: 
 Data sizes:     COMRAM   BANK0   BANK1   BANK2   BANK3   BANK4   BANK5   BANK6   BANK7   BANK8   BANK9  BANK10  BANK11  BANK12  BANK13  BANK14
      Params:         0       0       0       0       0       0       0       0       0       0       0       0       0       0       0       0
      Locals:         0       0       0       0       0       0       0       0       0       0       0       0       0       0       0       0
      Temps:          0       0       0       0       0       0       0       0       0       0       0       0       0       0       0       0
      Totals:         0       0       0       0       0       0       0       0       0       0       0       0       0       0       0       0
Total ram usage:        0 bytes
 Hardware stack levels used:    1
 This function calls:
		Nothing
 This function is called by:
		_TMR0_Initialize
		_TMR0_ISR
 This function uses a non-reentrant model


 *************** function _heartbeatTimerHandler *****************
 Defined at:
		line 20 in file "heartbeat_timer.c"
 Parameters:    Size  Location     Type
		None
 Auto vars:     Size  Location     Type
		None
 Return value:  Size  Location     Type
                  1    wreg      void 
 Registers used:
		wreg, status,2, status,0, cstack
 Tracked objects:
		On entry : 
		On exit  : 
		Unchanged: 
 Data sizes:     COMRAM   BANK0   BANK1   BANK2   BANK3   BANK4   BANK5   BANK6   BANK7   BANK8   BANK9  BANK10  BANK11  BANK12  BANK13  BANK14
      Params:         0       0       0       0       0       0       0       0       0       0       0       0       0       0       0       0
      Locals:         0       0       0       0       0       0       0       0       0       0       0       0       0       0       0       0
      Temps:          1       0       0       0       0       0       0       0       0       0       0       0       0       0       0       0
      Totals:         1       0       0       0       0       0       0       0       0       0       0       0       0       0       0       0
Total ram usage:        1 bytes
 Hardware stack levels used:    1
 Hardware stack levels required when called:    1
 This function calls:
		i2___llmod
 This function is called by:
		_main
		_TMR0_ISR
 This function uses a non-reentrant model


 *************** function _PIN_MANAGER_IOC *****************
 Defined at:
		line 143 in file "mcc_generated_files/pin_manager.c"
 Parameters:    Size  Location     Type
		None
 Auto vars:     Size  Location     Type
		None
 Return value:  Size  Location     Type
                  1    wreg      void 
 Registers used:
		wreg, status,2, status,0, pclath, tosl, cstack
 Tracked objects:
		On entry : 
		On exit  : 
		Unchanged: 
 Data sizes:     COMRAM   BANK0   BANK1   BANK2   BANK3   BANK4   BANK5   BANK6   BANK7   BANK8   BANK9  BANK10  BANK11  BANK12  BANK13  BANK14
      Params:         0       0       0       0       0       0       0       0       0       0       0       0       0       0       0       0
      Locals:         0       0       0       0       0       0       0       0       0       0       0       0       0       0       0       0
      Temps:          0       0       0       0       0       0       0       0       0       0       0       0       0       0       0       0
      Totals:         0       0       0       0       0       0       0       0       0       0       0       0       0       0       0       0
Total ram usage:        0 bytes
 Hardware stack levels used:    1
 Hardware stack levels required when called:    4
 This function calls:
		_IOCBF2_ISR
		_IOCBF3_ISR
 This function is called by:
		_INTERRUPT_InterruptManagerHigh
 This function uses a non-reentrant model


 *************** function _IOCBF3_ISR *****************
 Defined at:
		line 190 in file "mcc_generated_files/pin_manager.c"
 Parameters:    Size  Location     Type
		None
 Auto vars:     Size  Location     Type
		None
 Return value:  Size  Location     Type
                  1    wreg      void 
 Registers used:
		wreg, status,2, status,0, pclath, tosl, cstack
 Tracked objects:
		On entry : 
		On exit  : 
		Unchanged: 
 Data sizes:     COMRAM   BANK0   BANK1   BANK2   BANK3   BANK4   BANK5   BANK6   BANK7   BANK8   BANK9  BANK10  BANK11  BANK12  BANK13  BANK14
      Params:         0       0       0       0       0       0       0       0       0       0       0       0       0       0       0       0
      Locals:         0       0       0       0       0       0       0       0       0       0       0       0       0       0       0       0
      Temps:          0       0       0       0       0       0       0       0       0       0       0       0       0       0       0       0
      Totals:         0       0       0       0       0       0       0       0       0       0       0       0       0       0       0       0
Total ram usage:        0 bytes
 Hardware stack levels used:    1
 Hardware stack levels required when called:    3
 This function calls:
		Absolute function
		_IOCBF3_DefaultInterruptHandler
		_QIChargeIOCHandler
 This function is called by:
		_PIN_MANAGER_IOC
 This function uses a non-reentrant model


 *************** function _IOCBF3_DefaultInterruptHandler *****************
 Defined at:
		line 212 in file "mcc_generated_files/pin_manager.c"
 Parameters:    Size  Location     Type
		None
 Auto vars:     Size  Location     Type
		None
 Return value:  Size  Location     Type
                  1    wreg      void 
 Registers used:
		None
 Tracked objects:
		On entry : 
		On exit  : 
		Unchanged: 
 Data sizes:     COMRAM   BANK0   BANK1   BANK2   BANK3   BANK4   BANK5   BANK6   BANK7   BANK8   BANK9  BANK10  BANK11  BANK12  BANK13  BANK14
      Params:         0       0       0       0       0       0       0       0       0       0       0       0       0       0       0       0
      Locals:         0       0       0       0       0       0       0       0       0       0       0       0       0       0       0       0
      Temps:          0       0       0       0       0       0       0       0       0       0       0       0       0       0       0       0
      Totals:         0       0       0       0       0       0       0       0       0       0       0       0       0       0       0       0
Total ram usage:        0 bytes
 Hardware stack levels used:    1
 This function calls:
		Nothing
 This function is called by:
		_PIN_MANAGER_Initialize
		_IOCBF3_ISR
 This function uses a non-reentrant model


 *************** function _QIChargeIOCHandler *****************
 Defined at:
		line 82 in file "NXQ_charge_state.c"
 Parameters:    Size  Location     Type
		None
 Auto vars:     Size  Location     Type
		None
 Return value:  Size  Location     Type
                  1    wreg      void 
 Registers used:
		wreg, status,2, cstack
 Tracked objects:
		On entry : 
		On exit  : 
		Unchanged: 
 Data sizes:     COMRAM   BANK0   BANK1   BANK2   BANK3   BANK4   BANK5   BANK6   BANK7   BANK8   BANK9  BANK10  BANK11  BANK12  BANK13  BANK14
      Params:         0       0       0       0       0       0       0       0       0       0       0       0       0       0       0       0
      Locals:         0       0       0       0       0       0       0       0       0       0       0       0       0       0       0       0
      Temps:          0       0       0       0       0       0       0       0       0       0       0       0       0       0       0       0
      Totals:         0       0       0       0       0       0       0       0       0       0       0       0       0       0       0       0
Total ram usage:        0 bytes
 Hardware stack levels used:    1
 Hardware stack levels required when called:    2
 This function calls:
		_TMR3_StartTimer
		i2_TMR1_Reload
		i2_TMR3_Reload
 This function is called by:
		_main
		_IOCBF3_ISR
 This function uses a non-reentrant model


 *************** function i2_TMR1_Reload *****************
 Defined at:
		line 149 in file "mcc_generated_files/tmr1.c"
 Parameters:    Size  Location     Type
		None
 Auto vars:     Size  Location     Type
		None
 Return value:  Size  Location     Type
                  1    wreg      void 
 Registers used:
		wreg, status,2, cstack
 Tracked objects:
		On entry : 
		On exit  : 
		Unchanged: 
 Data sizes:     COMRAM   BANK0   BANK1   BANK2   BANK3   BANK4   BANK5   BANK6   BANK7   BANK8   BANK9  BANK10  BANK11  BANK12  BANK13  BANK14
      Params:         0       0       0       0       0       0       0       0       0       0       0       0       0       0       0       0
      Locals:         0       0       0       0       0       0       0       0       0       0       0       0       0       0       0       0
      Temps:          0       0       0       0       0       0       0       0       0       0       0       0       0       0       0       0
      Totals:         0       0       0       0       0       0       0       0       0       0       0       0       0       0       0       0
Total ram usage:        0 bytes
 Hardware stack levels used:    1
 Hardware stack levels required when called:    1
 This function calls:
		i2_TMR1_WriteTimer
 This function is called by:
		_QIChargeIOCHandler
		_QIErrorTimerHandler
 This function uses a non-reentrant model


 *************** function i2_TMR1_WriteTimer *****************
 Defined at:
		line 127 in file "mcc_generated_files/tmr1.c"
 Parameters:    Size  Location     Type
  timerVal        2    0[COMRAM] unsigned int 
 Auto vars:     Size  Location     Type
		None
 Return value:  Size  Location     Type
                  1    wreg      void 
 Registers used:
		wreg, status,2
 Tracked objects:
		On entry : 
		On exit  : 
		Unchanged: 
 Data sizes:     COMRAM   BANK0   BANK1   BANK2   BANK3   BANK4   BANK5   BANK6   BANK7   BANK8   BANK9  BANK10  BANK11  BANK12  BANK13  BANK14
      Params:         2       0       0       0       0       0       0       0       0       0       0       0       0       0       0       0
      Locals:         0       0       0       0       0       0       0       0       0       0       0       0       0       0       0       0
      Temps:          0       0       0       0       0       0       0       0       0       0       0       0       0       0       0       0
      Totals:         2       0       0       0       0       0       0       0       0       0       0       0       0       0       0       0
Total ram usage:        2 bytes
 Hardware stack levels used:    1
 This function calls:
		Nothing
 This function is called by:
		_TMR1_ISR
		i2_TMR1_Reload
 This function uses a non-reentrant model


 *************** function _IOCBF2_ISR *****************
 Defined at:
		line 160 in file "mcc_generated_files/pin_manager.c"
 Parameters:    Size  Location     Type
		None
 Auto vars:     Size  Location     Type
		None
 Return value:  Size  Location     Type
                  1    wreg      void 
 Registers used:
		wreg, status,2, status,0, pclath, tosl, cstack
 Tracked objects:
		On entry : 
		On exit  : 
		Unchanged: 
 Data sizes:     COMRAM   BANK0   BANK1   BANK2   BANK3   BANK4   BANK5   BANK6   BANK7   BANK8   BANK9  BANK10  BANK11  BANK12  BANK13  BANK14
      Params:         0       0       0       0       0       0       0       0       0       0       0       0       0       0       0       0
      Locals:         0       0       0       0       0       0       0       0       0       0       0       0       0       0       0       0
      Temps:          0       0       0       0       0       0       0       0       0       0       0       0       0       0       0       0
      Totals:         0       0       0       0       0       0       0       0       0       0       0       0       0       0       0       0
Total ram usage:        0 bytes
 Hardware stack levels used:    1
 Hardware stack levels required when called:    3
 This function calls:
		Absolute function
		_IOCBF2_DefaultInterruptHandler
		_QIIdleIOCHandler
 This function is called by:
		_PIN_MANAGER_IOC
 This function uses a non-reentrant model


 *************** function _IOCBF2_DefaultInterruptHandler *****************
 Defined at:
		line 182 in file "mcc_generated_files/pin_manager.c"
 Parameters:    Size  Location     Type
		None
 Auto vars:     Size  Location     Type
		None
 Return value:  Size  Location     Type
                  1    wreg      void 
 Registers used:
		None
 Tracked objects:
		On entry : 
		On exit  : 
		Unchanged: 
 Data sizes:     COMRAM   BANK0   BANK1   BANK2   BANK3   BANK4   BANK5   BANK6   BANK7   BANK8   BANK9  BANK10  BANK11  BANK12  BANK13  BANK14
      Params:         0       0       0       0       0       0       0       0       0       0       0       0       0       0       0       0
      Locals:         0       0       0       0       0       0       0       0       0       0       0       0       0       0       0       0
      Temps:          0       0       0       0       0       0       0       0       0       0       0       0       0       0       0       0
      Totals:         0       0       0       0       0       0       0       0       0       0       0       0       0       0       0       0
Total ram usage:        0 bytes
 Hardware stack levels used:    1
 This function calls:
		Nothing
 This function is called by:
		_PIN_MANAGER_Initialize
		_IOCBF2_ISR
 This function uses a non-reentrant model


 *************** function _QIIdleIOCHandler *****************
 Defined at:
		line 67 in file "NXQ_charge_state.c"
 Parameters:    Size  Location     Type
		None
 Auto vars:     Size  Location     Type
		None
 Return value:  Size  Location     Type
                  1    wreg      void 
 Registers used:
		wreg, status,2, cstack
 Tracked objects:
		On entry : 
		On exit  : 
		Unchanged: 
 Data sizes:     COMRAM   BANK0   BANK1   BANK2   BANK3   BANK4   BANK5   BANK6   BANK7   BANK8   BANK9  BANK10  BANK11  BANK12  BANK13  BANK14
      Params:         0       0       0       0       0       0       0       0       0       0       0       0       0       0       0       0
      Locals:         0       0       0       0       0       0       0       0       0       0       0       0       0       0       0       0
      Temps:          0       0       0       0       0       0       0       0       0       0       0       0       0       0       0       0
      Totals:         0       0       0       0       0       0       0       0       0       0       0       0       0       0       0       0
Total ram usage:        0 bytes
 Hardware stack levels used:    1
 Hardware stack levels required when called:    2
 This function calls:
		_TMR1_StartTimer
		_TMR3_StartTimer
		i2_TMR3_Reload
 This function is called by:
		_main
		_IOCBF2_ISR
 This function uses a non-reentrant model


 *************** function i2_TMR3_Reload *****************
 Defined at:
		line 149 in file "mcc_generated_files/tmr3.c"
 Parameters:    Size  Location     Type
		None
 Auto vars:     Size  Location     Type
		None
 Return value:  Size  Location     Type
                  1    wreg      void 
 Registers used:
		wreg, status,2, cstack
 Tracked objects:
		On entry : 
		On exit  : 
		Unchanged: 
 Data sizes:     COMRAM   BANK0   BANK1   BANK2   BANK3   BANK4   BANK5   BANK6   BANK7   BANK8   BANK9  BANK10  BANK11  BANK12  BANK13  BANK14
      Params:         0       0       0       0       0       0       0       0       0       0       0       0       0       0       0       0
      Locals:         0       0       0       0       0       0       0       0       0       0       0       0       0       0       0       0
      Temps:          0       0       0       0       0       0       0       0       0       0       0       0       0       0       0       0
      Totals:         0       0       0       0       0       0       0       0       0       0       0       0       0       0       0       0
Total ram usage:        0 bytes
 Hardware stack levels used:    1
 Hardware stack levels required when called:    1
 This function calls:
		i2_TMR3_WriteTimer
 This function is called by:
		_QIIdleIOCHandler
		_QIChargeIOCHandler
 This function uses a non-reentrant model


 *************** function i2_TMR3_WriteTimer *****************
 Defined at:
		line 127 in file "mcc_generated_files/tmr3.c"
 Parameters:    Size  Location     Type
  timerVal        2    0[COMRAM] unsigned int 
 Auto vars:     Size  Location     Type
		None
 Return value:  Size  Location     Type
                  1    wreg      void 
 Registers used:
		wreg, status,2
 Tracked objects:
		On entry : 
		On exit  : 
		Unchanged: 
 Data sizes:     COMRAM   BANK0   BANK1   BANK2   BANK3   BANK4   BANK5   BANK6   BANK7   BANK8   BANK9  BANK10  BANK11  BANK12  BANK13  BANK14
      Params:         2       0       0       0       0       0       0       0       0       0       0       0       0       0       0       0
      Locals:         0       0       0       0       0       0       0       0       0       0       0       0       0       0       0       0
      Temps:          0       0       0       0       0       0       0       0       0       0       0       0       0       0       0       0
      Totals:         2       0       0       0       0       0       0       0       0       0       0       0       0       0       0       0
Total ram usage:        2 bytes
 Hardware stack levels used:    1
 This function calls:
		Nothing
 This function is called by:
		i2_TMR3_Reload
 This function uses a non-reentrant model


 *************** function _TMR3_StartTimer *****************
 Defined at:
		line 99 in file "mcc_generated_files/tmr3.c"
 Parameters:    Size  Location     Type
		None
 Auto vars:     Size  Location     Type
		None
 Return value:  Size  Location     Type
                  1    wreg      void 
 Registers used:
		None
 Tracked objects:
		On entry : 
		On exit  : 
		Unchanged: 
 Data sizes:     COMRAM   BANK0   BANK1   BANK2   BANK3   BANK4   BANK5   BANK6   BANK7   BANK8   BANK9  BANK10  BANK11  BANK12  BANK13  BANK14
      Params:         0       0       0       0       0       0       0       0       0       0       0       0       0       0       0       0
      Locals:         0       0       0       0       0       0       0       0       0       0       0       0       0       0       0       0
      Temps:          0       0       0       0       0       0       0       0       0       0       0       0       0       0       0       0
      Totals:         0       0       0       0       0       0       0       0       0       0       0       0       0       0       0       0
Total ram usage:        0 bytes
 Hardware stack levels used:    1
 This function calls:
		Nothing
 This function is called by:
		_QIIdleIOCHandler
		_QIChargeIOCHandler
 This function uses a non-reentrant model


 *************** function _TMR1_StartTimer *****************
 Defined at:
		line 99 in file "mcc_generated_files/tmr1.c"
 Parameters:    Size  Location     Type
		None
 Auto vars:     Size  Location     Type
		None
 Return value:  Size  Location     Type
                  1    wreg      void 
 Registers used:
		None
 Tracked objects:
		On entry : 
		On exit  : 
		Unchanged: 
 Data sizes:     COMRAM   BANK0   BANK1   BANK2   BANK3   BANK4   BANK5   BANK6   BANK7   BANK8   BANK9  BANK10  BANK11  BANK12  BANK13  BANK14
      Params:         0       0       0       0       0       0       0       0       0       0       0       0       0       0       0       0
      Locals:         0       0       0       0       0       0       0       0       0       0       0       0       0       0       0       0
      Temps:          0       0       0       0       0       0       0       0       0       0       0       0       0       0       0       0
      Totals:         0       0       0       0       0       0       0       0       0       0       0       0       0       0       0       0
Total ram usage:        0 bytes
 Hardware stack levels used:    1
 This function calls:
		Nothing
 This function is called by:
		_QIIdleIOCHandler
 This function uses a non-reentrant model


 *************** function _INT2_ISR *****************
 Defined at:
		line 59 in file "mcc_generated_files/ext_int.c"
 Parameters:    Size  Location     Type
		None
 Auto vars:     Size  Location     Type
		None
 Return value:  Size  Location     Type
                  1    wreg      void 
 Registers used:
		wreg, status,2, status,0, pclath, tosl, cstack
 Tracked objects:
		On entry : 
		On exit  : 
		Unchanged: 
 Data sizes:     COMRAM   BANK0   BANK1   BANK2   BANK3   BANK4   BANK5   BANK6   BANK7   BANK8   BANK9  BANK10  BANK11  BANK12  BANK13  BANK14
      Params:         0       0       0       0       0       0       0       0       0       0       0       0       0       0       0       0
      Locals:         0       0       0       0       0       0       0       0       0       0       0       0       0       0       0       0
      Temps:          0       0       0       0       0       0       0       0       0       0       0       0       0       0       0       0
      Totals:         0       0       0       0       0       0       0       0       0       0       0       0       0       0       0       0
Total ram usage:        0 bytes
 Hardware stack levels used:    1
 Hardware stack levels required when called:    2
 This function calls:
		_INT2_CallBack
 This function is called by:
		_INTERRUPT_InterruptManagerHigh
 This function uses a non-reentrant model


 *************** function _INT2_CallBack *****************
 Defined at:
		line 68 in file "mcc_generated_files/ext_int.c"
 Parameters:    Size  Location     Type
		None
 Auto vars:     Size  Location     Type
		None
 Return value:  Size  Location     Type
                  1    wreg      void 
 Registers used:
		wreg, status,2, status,0, pclath, tosl, cstack
 Tracked objects:
		On entry : 
		On exit  : 
		Unchanged: 
 Data sizes:     COMRAM   BANK0   BANK1   BANK2   BANK3   BANK4   BANK5   BANK6   BANK7   BANK8   BANK9  BANK10  BANK11  BANK12  BANK13  BANK14
      Params:         0       0       0       0       0       0       0       0       0       0       0       0       0       0       0       0
      Locals:         0       0       0       0       0       0       0       0       0       0       0       0       0       0       0       0
      Temps:          0       0       0       0       0       0       0       0       0       0       0       0       0       0       0       0
      Totals:         0       0       0       0       0       0       0       0       0       0       0       0       0       0       0       0
Total ram usage:        0 bytes
 Hardware stack levels used:    1
 Hardware stack levels required when called:    1
 This function calls:
		Absolute function
		_INT2_DefaultInterruptHandler
		_rightCapTouchHandler
 This function is called by:
		_INT2_ISR
 This function uses a non-reentrant model


 *************** function _INT2_DefaultInterruptHandler *****************
 Defined at:
		line 81 in file "mcc_generated_files/ext_int.c"
 Parameters:    Size  Location     Type
		None
 Auto vars:     Size  Location     Type
		None
 Return value:  Size  Location     Type
                  1    wreg      void 
 Registers used:
		None
 Tracked objects:
		On entry : 
		On exit  : 
		Unchanged: 
 Data sizes:     COMRAM   BANK0   BANK1   BANK2   BANK3   BANK4   BANK5   BANK6   BANK7   BANK8   BANK9  BANK10  BANK11  BANK12  BANK13  BANK14
      Params:         0       0       0       0       0       0       0       0       0       0       0       0       0       0       0       0
      Locals:         0       0       0       0       0       0       0       0       0       0       0       0       0       0       0       0
      Temps:          0       0       0       0       0       0       0       0       0       0       0       0       0       0       0       0
      Totals:         0       0       0       0       0       0       0       0       0       0       0       0       0       0       0       0
Total ram usage:        0 bytes
 Hardware stack levels used:    1
 This function calls:
		Nothing
 This function is called by:
		_EXT_INT_Initialize
		_INT2_CallBack
 This function uses a non-reentrant model


 *************** function _rightCapTouchHandler *****************
 Defined at:
		line 20 in file "cap_touch_int.c"
 Parameters:    Size  Location     Type
		None
 Auto vars:     Size  Location     Type
		None
 Return value:  Size  Location     Type
                  1    wreg      void 
 Registers used:
		wreg, status,2, status,0
 Tracked objects:
		On entry : 
		On exit  : 
		Unchanged: 
 Data sizes:     COMRAM   BANK0   BANK1   BANK2   BANK3   BANK4   BANK5   BANK6   BANK7   BANK8   BANK9  BANK10  BANK11  BANK12  BANK13  BANK14
      Params:         0       0       0       0       0       0       0       0       0       0       0       0       0       0       0       0
      Locals:         0       0       0       0       0       0       0       0       0       0       0       0       0       0       0       0
      Temps:          0       0       0       0       0       0       0       0       0       0       0       0       0       0       0       0
      Totals:         0       0       0       0       0       0       0       0       0       0       0       0       0       0       0       0
Total ram usage:        0 bytes
 Hardware stack levels used:    1
 This function calls:
		Nothing
 This function is called by:
		_main
		_INT2_CallBack
 This function uses a non-reentrant model


 *************** function _INT1_ISR *****************
 Defined at:
		line 33 in file "mcc_generated_files/ext_int.c"
 Parameters:    Size  Location     Type
		None
 Auto vars:     Size  Location     Type
		None
 Return value:  Size  Location     Type
                  1    wreg      void 
 Registers used:
		wreg, status,2, status,0, pclath, tosl, cstack
 Tracked objects:
		On entry : 
		On exit  : 
		Unchanged: 
 Data sizes:     COMRAM   BANK0   BANK1   BANK2   BANK3   BANK4   BANK5   BANK6   BANK7   BANK8   BANK9  BANK10  BANK11  BANK12  BANK13  BANK14
      Params:         0       0       0       0       0       0       0       0       0       0       0       0       0       0       0       0
      Locals:         0       0       0       0       0       0       0       0       0       0       0       0       0       0       0       0
      Temps:          0       0       0       0       0       0       0       0       0       0       0       0       0       0       0       0
      Totals:         0       0       0       0       0       0       0       0       0       0       0       0       0       0       0       0
Total ram usage:        0 bytes
 Hardware stack levels used:    1
 Hardware stack levels required when called:    2
 This function calls:
		_INT1_CallBack
 This function is called by:
		_INTERRUPT_InterruptManagerHigh
 This function uses a non-reentrant model


 *************** function _INT1_CallBack *****************
 Defined at:
		line 42 in file "mcc_generated_files/ext_int.c"
 Parameters:    Size  Location     Type
		None
 Auto vars:     Size  Location     Type
		None
 Return value:  Size  Location     Type
                  1    wreg      void 
 Registers used:
		wreg, status,2, status,0, pclath, tosl, cstack
 Tracked objects:
		On entry : 
		On exit  : 
		Unchanged: 
 Data sizes:     COMRAM   BANK0   BANK1   BANK2   BANK3   BANK4   BANK5   BANK6   BANK7   BANK8   BANK9  BANK10  BANK11  BANK12  BANK13  BANK14
      Params:         0       0       0       0       0       0       0       0       0       0       0       0       0       0       0       0
      Locals:         0       0       0       0       0       0       0       0       0       0       0       0       0       0       0       0
      Temps:          0       0       0       0       0       0       0       0       0       0       0       0       0       0       0       0
      Totals:         0       0       0       0       0       0       0       0       0       0       0       0       0       0       0       0
Total ram usage:        0 bytes
 Hardware stack levels used:    1
 Hardware stack levels required when called:    1
 This function calls:
		Absolute function
		_INT1_DefaultInterruptHandler
		_leftCapTouchHandler
 This function is called by:
		_INT1_ISR
 This function uses a non-reentrant model


 *************** function _INT1_DefaultInterruptHandler *****************
 Defined at:
		line 55 in file "mcc_generated_files/ext_int.c"
 Parameters:    Size  Location     Type
		None
 Auto vars:     Size  Location     Type
		None
 Return value:  Size  Location     Type
                  1    wreg      void 
 Registers used:
		None
 Tracked objects:
		On entry : 
		On exit  : 
		Unchanged: 
 Data sizes:     COMRAM   BANK0   BANK1   BANK2   BANK3   BANK4   BANK5   BANK6   BANK7   BANK8   BANK9  BANK10  BANK11  BANK12  BANK13  BANK14
      Params:         0       0       0       0       0       0       0       0       0       0       0       0       0       0       0       0
      Locals:         0       0       0       0       0       0       0       0       0       0       0       0       0       0       0       0
      Temps:          0       0       0       0       0       0       0       0       0       0       0       0       0       0       0       0
      Totals:         0       0       0       0       0       0       0       0       0       0       0       0       0       0       0       0
Total ram usage:        0 bytes
 Hardware stack levels used:    1
 This function calls:
		Nothing
 This function is called by:
		_EXT_INT_Initialize
		_INT1_CallBack
 This function uses a non-reentrant model


 *************** function _leftCapTouchHandler *****************
 Defined at:
		line 11 in file "cap_touch_int.c"
 Parameters:    Size  Location     Type
		None
 Auto vars:     Size  Location     Type
		None
 Return value:  Size  Location     Type
                  1    wreg      void 
 Registers used:
		wreg, status,2, status,0
 Tracked objects:
		On entry : 
		On exit  : 
		Unchanged: 
 Data sizes:     COMRAM   BANK0   BANK1   BANK2   BANK3   BANK4   BANK5   BANK6   BANK7   BANK8   BANK9  BANK10  BANK11  BANK12  BANK13  BANK14
      Params:         0       0       0       0       0       0       0       0       0       0       0       0       0       0       0       0
      Locals:         0       0       0       0       0       0       0       0       0       0       0       0       0       0       0       0
      Temps:          0       0       0       0       0       0       0       0       0       0       0       0       0       0       0       0
      Totals:         0       0       0       0       0       0       0       0       0       0       0       0       0       0       0       0
Total ram usage:        0 bytes
 Hardware stack levels used:    1
 This function calls:
		Nothing
 This function is called by:
		_main
		_INT1_CallBack
 This function uses a non-reentrant model


 *************** function _EUSART2_Receive_ISR *****************
 Defined at:
		line 206 in file "mcc_generated_files/eusart2.c"
 Parameters:    Size  Location     Type
		None
 Auto vars:     Size  Location     Type
		None
 Return value:  Size  Location     Type
                  1    wreg      void 
 Registers used:
		wreg, fsr0l, fsr0h, fsr2l, fsr2h, status,2, status,0, pclath, tosl, tblptrl, tblptrh, tblptru, prodl, prodh, cstack
 Tracked objects:
		On entry : 
		On exit  : 
		Unchanged: 
 Data sizes:     COMRAM   BANK0   BANK1   BANK2   BANK3   BANK4   BANK5   BANK6   BANK7   BANK8   BANK9  BANK10  BANK11  BANK12  BANK13  BANK14
      Params:         0       0       0       0       0       0       0       0       0       0       0       0       0       0       0       0
      Locals:         0       0       0       0       0       0       0       0       0       0       0       0       0       0       0       0
      Temps:          0       0       0       0       0       0       0       0       0       0       0       0       0       0       0       0
      Totals:         0       0       0       0       0       0       0       0       0       0       0       0       0       0       0       0
Total ram usage:        0 bytes
 Hardware stack levels used:    1
 Hardware stack levels required when called:    4
 This function calls:
		i2_printf
 This function is called by:
		_EUSART2_Initialize
		_INTERRUPT_InterruptManagerHigh
 This function uses a non-reentrant model


 *************** function i2_printf *****************
 Defined at:
		line 13 in file "C:\Program Files (x86)\Microchip\xc8\v2.05\pic\sources\c90\common\printf.c"
 Parameters:    Size  Location     Type
  f               2   68[BANK0 ] PTR const unsigned char 
		 -> STR_330(60), STR_329(24), STR_328(24), STR_327(24), 
		 -> STR_326(27), STR_325(20), STR_324(35), STR_323(34), 
		 -> STR_322(37), STR_321(34), STR_320(36), STR_319(35), 
		 -> STR_318(33), STR_317(35), STR_316(20), STR_315(23), 
		 -> STR_314(20), STR_313(22), STR_312(21), STR_311(19), 
		 -> STR_310(21), STR_309(27), STR_308(18), STR_307(11), 
		 -> terminalTextAttributes@print_string(16), STR_277(4), STR_276(4), STR_275(4), 
		 -> STR_274(4), STR_273(5), STR_272(45), STR_271(88), 
		 -> STR_270(37), STR_269(30), STR_268(46), STR_267(39), 
		 -> STR_266(62), STR_265(57), STR_264(2233), STR_263(22), 
		 -> STR_261(49), STR_260(49), STR_258(36), STR_257(54), 
		 -> STR_256(31), STR_254(55), STR_253(32), STR_251(56), 
		 -> STR_250(34), STR_248(42), STR_246(48), STR_244(47), 
		 -> STR_242(41), STR_240(50), STR_238(51), STR_236(31), 
		 -> STR_234(88), STR_232(46), STR_230(44), STR_228(54), 
		 -> STR_226(36), STR_224(35), STR_222(28), STR_221(60), 
		 -> STR_220(26), STR_219(27), STR_218(59), STR_217(29), 
		 -> STR_216(31), STR_215(33), STR_214(36), STR_213(24), 
		 -> STR_212(42), STR_211(27), STR_210(48), STR_209(10), 
		 -> STR_208(24), STR_207(46), STR_206(25), STR_204(24), 
		 -> STR_202(23), STR_200(23), STR_198(40), STR_196(39), 
		 -> STR_194(51), STR_192(56), STR_191(64), STR_189(59), 
		 -> STR_187(44), STR_185(54), STR_183(52), STR_181(4), 
		 -> STR_180(5), STR_178(4), STR_177(5), STR_10(47), 
		 -> STR_9(30), STR_8(46), STR_7(39), STR_6(62), 
		 -> STR_5(57), STR_4(39), STR_3(44), STR_2(52), 
		 -> STR_1(4), 
 Auto vars:     Size  Location     Type
  printf          5   72[BANK0 ] struct __prbuf
  printf          2   70[BANK0 ] PTR void [1]
		 -> ?i2_printf(2), ?_sprintf(2), ?_printf(2), 
 Return value:  Size  Location     Type
                  2   68[BANK0 ] int 
 Registers used:
		wreg, fsr0l, fsr0h, fsr2l, fsr2h, status,2, status,0, pclath, tosl, tblptrl, tblptrh, tblptru, prodl, prodh, cstack
 Tracked objects:
		On entry : 
		On exit  : 
		Unchanged: 
 Data sizes:     COMRAM   BANK0   BANK1   BANK2   BANK3   BANK4   BANK5   BANK6   BANK7   BANK8   BANK9  BANK10  BANK11  BANK12  BANK13  BANK14
      Params:         0       2       0       0       0       0       0       0       0       0       0       0       0       0       0       0
      Locals:         0       7       0       0       0       0       0       0       0       0       0       0       0       0       0       0
      Temps:          0       0       0       0       0       0       0       0       0       0       0       0       0       0       0       0
      Totals:         0       9       0       0       0       0       0       0       0       0       0       0       0       0       0       0
Total ram usage:        9 bytes
 Hardware stack levels used:    1
 Hardware stack levels required when called:    3
 This function calls:
		i2__doprnt
 This function is called by:
		_EUSART2_Receive_ISR
 This function uses a non-reentrant model


 *************** function i2__doprnt *****************
 Defined at:
		line 466 in file "C:\Program Files (x86)\Microchip\xc8\v2.05\pic\sources\c90\common\doprnt.c"
 Parameters:    Size  Location     Type
  pb              2   12[BANK0 ] PTR struct __prbuf
		 -> i2printf@pb(5), sprintf@pb(5), printf@pb(5), 
  f               2   14[BANK0 ] PTR const unsigned char 
		 -> STR_333(11), STR_330(60), STR_329(24), STR_328(24), 
		 -> STR_327(24), STR_326(27), STR_325(20), STR_324(35), 
		 -> STR_323(34), STR_322(37), STR_321(34), STR_320(36), 
		 -> STR_319(35), STR_318(33), STR_317(35), STR_316(20), 
		 -> STR_315(23), STR_314(20), STR_313(22), STR_312(21), 
		 -> STR_311(19), STR_310(21), STR_309(27), STR_308(18), 
		 -> STR_307(11), terminalTextAttributes@print_string(16), STR_277(4), STR_276(4), 
		 -> STR_275(4), STR_274(4), STR_273(5), STR_272(45), 
		 -> STR_271(88), STR_270(37), STR_269(30), STR_268(46), 
		 -> STR_267(39), STR_266(62), STR_265(57), STR_264(2233), 
		 -> STR_263(22), STR_261(49), STR_260(49), STR_258(36), 
		 -> STR_257(54), STR_256(31), STR_254(55), STR_253(32), 
		 -> STR_251(56), STR_250(34), STR_248(42), STR_246(48), 
		 -> STR_244(47), STR_242(41), STR_240(50), STR_238(51), 
		 -> STR_236(31), STR_234(88), STR_232(46), STR_230(44), 
		 -> STR_228(54), STR_226(36), STR_224(35), STR_222(28), 
		 -> STR_221(60), STR_220(26), STR_219(27), STR_218(59), 
		 -> STR_217(29), STR_216(31), STR_215(33), STR_214(36), 
		 -> STR_213(24), STR_212(42), STR_211(27), STR_210(48), 
		 -> STR_209(10), STR_208(24), STR_207(46), STR_206(25), 
		 -> STR_204(24), STR_202(23), STR_200(23), STR_198(40), 
		 -> STR_196(39), STR_194(51), STR_192(56), STR_191(64), 
		 -> STR_189(59), STR_187(44), STR_185(54), STR_183(52), 
		 -> STR_181(4), STR_180(5), STR_178(4), STR_177(5), 
		 -> STR_167(7), STR_165(5), STR_158(11), STR_153(11), 
		 -> STR_152(11), STR_151(11), STR_150(11), STR_149(9), 
		 -> STR_145(11), STR_143(11), STR_142(11), STR_141(11), 
		 -> STR_140(11), STR_139(9), STR_138(11), STR_137(9), 
		 -> STR_136(8), STR_135(9), STR_134(8), STR_133(9), 
		 -> STR_129(9), STR_119(7), STR_115(7), STR_111(7), 
		 -> STR_107(7), STR_103(8), STR_99(7), STR_95(7), 
		 -> STR_91(7), STR_87(7), STR_83(7), STR_79(7), 
		 -> STR_66(7), STR_64(5), STR_57(11), STR_56(10), 
		 -> STR_55(13), STR_54(12), STR_53(11), STR_52(10), 
		 -> STR_51(10), STR_50(9), STR_49(11), STR_48(10), 
		 -> STR_10(47), STR_9(30), STR_8(46), STR_7(39), 
		 -> STR_6(62), STR_5(57), STR_4(39), STR_3(44), 
		 -> STR_2(52), STR_1(4), 
  ap              2   16[BANK0 ] PTR PTR void 
		 -> i2printf@ap(2), sprintf@ap(2), printf@ap(2), 
 Auto vars:     Size  Location     Type
  _doprnt         4   57[BANK0 ] unsigned long 
  _doprnt         4   53[BANK0 ] unsigned long 
  _doprnt         4   49[BANK0 ] struct .
  _doprnt         2   65[BANK0 ] unsigned short 
  _doprnt         2   63[BANK0 ] int 
  _doprnt         2   61[BANK0 ] int 
  _doprnt         2   47[BANK0 ] int 
  _doprnt         2   45[BANK0 ] unsigned int 
  _doprnt         2   43[BANK0 ] PTR const unsigned char 
		 -> i2__doprnt@c(1), ?_sprintf(2), ?_printf(2), ftoa@buf(17), 
		 -> STR_331(7), _doprnt@c(1), freqMeasConvert@qi_period(4), OLED_updateHandler@rev_id_str(17), 
		 -> OLED_updateHandler@dev_id_str(17), OLED_RAM_Buffer(68), getStringSecondsAsTime@buff(20), getStringSecondsAsTime@return_string(40), 
		 -> STR_47(10), STR_46(13), STR_45(13), STR_44(12), 
		 -> STR_43(12), STR_42(13), STR_41(12), STR_30(16), 
		 -> STR_29(22), STR_28(21), STR_27(27), STR_26(41), 
		 -> STR_25(32), STR_24(19), STR_23(16), STR_22(15), 
		 -> STR_21(16), STR_15(10), STR_14(6), STR_13(14), 
		 -> STR_12(9), STR_11(5), LM73Convert@Ambient_Conv(2), LM73Convert@POS5_Conv(2), 
		 -> LM73Convert@QI_Conv(2), NULL(0), 
  _doprnt         1   67[BANK0 ] unsigned char 
  _doprnt         1   26[BANK0 ] unsigned char 
  _doprnt         1    0        unsigned char 
 Return value:  Size  Location     Type
                  2   12[BANK0 ] int 
 Registers used:
		wreg, fsr0l, fsr0h, fsr2l, fsr2h, status,2, status,0, pclath, tosl, tblptrl, tblptrh, tblptru, prodl, prodh, cstack
 Tracked objects:
		On entry : 
		On exit  : 
		Unchanged: 
 Data sizes:     COMRAM   BANK0   BANK1   BANK2   BANK3   BANK4   BANK5   BANK6   BANK7   BANK8   BANK9  BANK10  BANK11  BANK12  BANK13  BANK14
      Params:         0       6       0       0       0       0       0       0       0       0       0       0       0       0       0       0
      Locals:         0      46       0       0       0       0       0       0       0       0       0       0       0       0       0       0
      Temps:          0       4       0       0       0       0       0       0       0       0       0       0       0       0       0       0
      Totals:         0      56       0       0       0       0       0       0       0       0       0       0       0       0       0       0
Total ram usage:       56 bytes
 Hardware stack levels used:    1
 Hardware stack levels required when called:    2
 This function calls:
		Absolute function
		i2___awdiv
		i2___fladd
		i2___fleq
		i2___flge
		i2___flmul
		i2___flneg
		i2___flsub
		i2___fltol
		i2___lldiv
		i2___llmod
		i2___wmul
		i2___xxtofl
		i2__div_to_l_
		i2__tdiv_to_l_
		i2_fround
		i2_isdigit
		i2_putch
		i2_scale
 This function is called by:
		i2_printf
 This function uses a non-reentrant model


 *************** function i2_scale *****************
 Defined at:
		line 433 in file "C:\Program Files (x86)\Microchip\xc8\v2.05\pic\sources\c90\common\doprnt.c"
 Parameters:    Size  Location     Type
  scl             1    wreg     char 
 Auto vars:     Size  Location     Type
  scl             1   76[COMRAM] char 
 Return value:  Size  Location     Type
                  4   68[COMRAM] char 
 Registers used:
		wreg, status,2, status,0, tblptrl, tblptrh, tblptru, prodl, prodh, cstack
 Tracked objects:
		On entry : 
		On exit  : 
		Unchanged: 
 Data sizes:     COMRAM   BANK0   BANK1   BANK2   BANK3   BANK4   BANK5   BANK6   BANK7   BANK8   BANK9  BANK10  BANK11  BANK12  BANK13  BANK14
      Params:         4       0       0       0       0       0       0       0       0       0       0       0       0       0       0       0
      Locals:         5       0       0       0       0       0       0       0       0       0       0       0       0       0       0       0
      Temps:          0       0       0       0       0       0       0       0       0       0       0       0       0       0       0       0
      Totals:         9       0       0       0       0       0       0       0       0       0       0       0       0       0       0       0
Total ram usage:        9 bytes
 Hardware stack levels used:    1
 Hardware stack levels required when called:    1
 This function calls:
		i2___awdiv
		i2___awmod
		i2___flmul
 This function is called by:
		i2__doprnt
 This function uses a non-reentrant model


 *************** function i2___awmod *****************
 Defined at:
		line 7 in file "C:\Program Files (x86)\Microchip\xc8\v2.05\pic\sources\c90\common\awmod.c"
 Parameters:    Size  Location     Type
  dividend        2    0[COMRAM] int 
  divisor         2    2[COMRAM] int 
 Auto vars:     Size  Location     Type
  __awmod         1    5[COMRAM] unsigned char 
  __awmod         1    4[COMRAM] unsigned char 
 Return value:  Size  Location     Type
                  2    0[COMRAM] int 
 Registers used:
		wreg, status,2, status,0
 Tracked objects:
		On entry : 
		On exit  : 
		Unchanged: 
 Data sizes:     COMRAM   BANK0   BANK1   BANK2   BANK3   BANK4   BANK5   BANK6   BANK7   BANK8   BANK9  BANK10  BANK11  BANK12  BANK13  BANK14
      Params:         4       0       0       0       0       0       0       0       0       0       0       0       0       0       0       0
      Locals:         2       0       0       0       0       0       0       0       0       0       0       0       0       0       0       0
      Temps:          0       0       0       0       0       0       0       0       0       0       0       0       0       0       0       0
      Totals:         6       0       0       0       0       0       0       0       0       0       0       0       0       0       0       0
Total ram usage:        6 bytes
 Hardware stack levels used:    1
 This function calls:
		Nothing
 This function is called by:
		i2_scale
 This function uses a non-reentrant model


 *************** function i2___awdiv *****************
 Defined at:
		line 7 in file "C:\Program Files (x86)\Microchip\xc8\v2.05\pic\sources\c90\common\awdiv.c"
 Parameters:    Size  Location     Type
  dividend        2    6[COMRAM] int 
  divisor         2    8[COMRAM] int 
 Auto vars:     Size  Location     Type
  __awdiv         2   12[COMRAM] int 
  __awdiv         1   11[COMRAM] unsigned char 
  __awdiv         1   10[COMRAM] unsigned char 
 Return value:  Size  Location     Type
                  2    6[COMRAM] int 
 Registers used:
		wreg, status,2, status,0
 Tracked objects:
		On entry : 
		On exit  : 
		Unchanged: 
 Data sizes:     COMRAM   BANK0   BANK1   BANK2   BANK3   BANK4   BANK5   BANK6   BANK7   BANK8   BANK9  BANK10  BANK11  BANK12  BANK13  BANK14
      Params:         4       0       0       0       0       0       0       0       0       0       0       0       0       0       0       0
      Locals:         4       0       0       0       0       0       0       0       0       0       0       0       0       0       0       0
      Temps:          0       0       0       0       0       0       0       0       0       0       0       0       0       0       0       0
      Totals:         8       0       0       0       0       0       0       0       0       0       0       0       0       0       0       0
Total ram usage:        8 bytes
 Hardware stack levels used:    1
 This function calls:
		Nothing
 This function is called by:
		i2_scale
		i2__doprnt
 This function uses a non-reentrant model


 *************** function i2_putch *****************
 Defined at:
		line 182 in file "mcc_generated_files/eusart2.c"
 Parameters:    Size  Location     Type
  txData          1    wreg     unsigned char 
 Auto vars:     Size  Location     Type
  txData          1    1[COMRAM] unsigned char 
 Return value:  Size  Location     Type
                  1    wreg      void 
 Registers used:
		wreg, fsr2l, fsr2h, status,2, status,0, cstack
 Tracked objects:
		On entry : 
		On exit  : 
		Unchanged: 
 Data sizes:     COMRAM   BANK0   BANK1   BANK2   BANK3   BANK4   BANK5   BANK6   BANK7   BANK8   BANK9  BANK10  BANK11  BANK12  BANK13  BANK14
      Params:         0       0       0       0       0       0       0       0       0       0       0       0       0       0       0       0
      Locals:         1       0       0       0       0       0       0       0       0       0       0       0       0       0       0       0
      Temps:          0       0       0       0       0       0       0       0       0       0       0       0       0       0       0       0
      Totals:         1       0       0       0       0       0       0       0       0       0       0       0       0       0       0       0
Total ram usage:        1 bytes
 Hardware stack levels used:    1
 Hardware stack levels required when called:    1
 This function calls:
		i2_EUSART2_Write
 This function is called by:
		i2_printf
		i2__doprnt
 This function uses a non-reentrant model


 *************** function i2_EUSART2_Write *****************
 Defined at:
		line 153 in file "mcc_generated_files/eusart2.c"
 Parameters:    Size  Location     Type
  txData          1    wreg     unsigned char 
 Auto vars:     Size  Location     Type
  txData          1    0[COMRAM] unsigned char 
 Return value:  Size  Location     Type
                  1    wreg      void 
 Registers used:
		wreg, fsr2l, fsr2h, status,2, status,0
 Tracked objects:
		On entry : 
		On exit  : 
		Unchanged: 
 Data sizes:     COMRAM   BANK0   BANK1   BANK2   BANK3   BANK4   BANK5   BANK6   BANK7   BANK8   BANK9  BANK10  BANK11  BANK12  BANK13  BANK14
      Params:         0       0       0       0       0       0       0       0       0       0       0       0       0       0       0       0
      Locals:         1       0       0       0       0       0       0       0       0       0       0       0       0       0       0       0
      Temps:          0       0       0       0       0       0       0       0       0       0       0       0       0       0       0       0
      Totals:         1       0       0       0       0       0       0       0       0       0       0       0       0       0       0       0
Total ram usage:        1 bytes
 Hardware stack levels used:    1
 This function calls:
		Nothing
 This function is called by:
		i2_putch
 This function uses a non-reentrant model


 *************** function i2_isdigit *****************
 Defined at:
		line 8 in file "C:\Program Files (x86)\Microchip\xc8\v2.05\pic\sources\c90\common\isdigit.c"
 Parameters:    Size  Location     Type
  c               1    wreg     unsigned char 
 Auto vars:     Size  Location     Type
  c               1    2[COMRAM] unsigned char 
 Return value:  Size  Location     Type
		None               void
 Registers used:
		wreg, status,2, status,0
 Tracked objects:
		On entry : 
		On exit  : 
		Unchanged: 
 Data sizes:     COMRAM   BANK0   BANK1   BANK2   BANK3   BANK4   BANK5   BANK6   BANK7   BANK8   BANK9  BANK10  BANK11  BANK12  BANK13  BANK14
      Params:         0       0       0       0       0       0       0       0       0       0       0       0       0       0       0       0
      Locals:         2       0       0       0       0       0       0       0       0       0       0       0       0       0       0       0
      Temps:          1       0       0       0       0       0       0       0       0       0       0       0       0       0       0       0
      Totals:         3       0       0       0       0       0       0       0       0       0       0       0       0       0       0       0
Total ram usage:        3 bytes
 Hardware stack levels used:    1
 This function calls:
		Nothing
 This function is called by:
		i2__doprnt
 This function uses a non-reentrant model


 *************** function i2_fround *****************
 Defined at:
		line 417 in file "C:\Program Files (x86)\Microchip\xc8\v2.05\pic\sources\c90\common\doprnt.c"
 Parameters:    Size  Location     Type
  prec            1    wreg     unsigned char 
 Auto vars:     Size  Location     Type
  prec            1   80[COMRAM] unsigned char 
 Return value:  Size  Location     Type
                  4   68[COMRAM] unsigned char 
 Registers used:
		wreg, status,2, status,0, tblptrl, tblptrh, tblptru, prodl, prodh, cstack
 Tracked objects:
		On entry : 
		On exit  : 
		Unchanged: 
 Data sizes:     COMRAM   BANK0   BANK1   BANK2   BANK3   BANK4   BANK5   BANK6   BANK7   BANK8   BANK9  BANK10  BANK11  BANK12  BANK13  BANK14
      Params:         4       0       0       0       0       0       0       0       0       0       0       0       0       0       0       0
      Locals:         9       0       0       0       0       0       0       0       0       0       0       0       0       0       0       0
      Temps:          0       0       0       0       0       0       0       0       0       0       0       0       0       0       0       0
      Totals:        13       0       0       0       0       0       0       0       0       0       0       0       0       0       0       0
Total ram usage:       13 bytes
 Hardware stack levels used:    1
 Hardware stack levels required when called:    1
 This function calls:
		i2___flmul
		i2___lwdiv
		i2___lwmod
 This function is called by:
		i2__doprnt
 This function uses a non-reentrant model


 *************** function i2___lwmod *****************
 Defined at:
		line 7 in file "C:\Program Files (x86)\Microchip\xc8\v2.05\pic\sources\c90\common\lwmod.c"
 Parameters:    Size  Location     Type
  dividend        2    0[COMRAM] unsigned int 
  divisor         2    2[COMRAM] unsigned int 
 Auto vars:     Size  Location     Type
  __lwmod         1    4[COMRAM] unsigned char 
 Return value:  Size  Location     Type
                  2    0[COMRAM] unsigned int 
 Registers used:
		wreg, status,2, status,0
 Tracked objects:
		On entry : 
		On exit  : 
		Unchanged: 
 Data sizes:     COMRAM   BANK0   BANK1   BANK2   BANK3   BANK4   BANK5   BANK6   BANK7   BANK8   BANK9  BANK10  BANK11  BANK12  BANK13  BANK14
      Params:         4       0       0       0       0       0       0       0       0       0       0       0       0       0       0       0
      Locals:         1       0       0       0       0       0       0       0       0       0       0       0       0       0       0       0
      Temps:          0       0       0       0       0       0       0       0       0       0       0       0       0       0       0       0
      Totals:         5       0       0       0       0       0       0       0       0       0       0       0       0       0       0       0
Total ram usage:        5 bytes
 Hardware stack levels used:    1
 This function calls:
		Nothing
 This function is called by:
		i2_fround
 This function uses a non-reentrant model


 *************** function i2___lwdiv *****************
 Defined at:
		line 7 in file "C:\Program Files (x86)\Microchip\xc8\v2.05\pic\sources\c90\common\lwdiv.c"
 Parameters:    Size  Location     Type
  dividend        2    5[COMRAM] unsigned int 
  divisor         2    7[COMRAM] unsigned int 
 Auto vars:     Size  Location     Type
  __lwdiv         2   10[COMRAM] unsigned int 
  __lwdiv         1    9[COMRAM] unsigned char 
 Return value:  Size  Location     Type
                  2    5[COMRAM] unsigned int 
 Registers used:
		wreg, status,2, status,0
 Tracked objects:
		On entry : 
		On exit  : 
		Unchanged: 
 Data sizes:     COMRAM   BANK0   BANK1   BANK2   BANK3   BANK4   BANK5   BANK6   BANK7   BANK8   BANK9  BANK10  BANK11  BANK12  BANK13  BANK14
      Params:         4       0       0       0       0       0       0       0       0       0       0       0       0       0       0       0
      Locals:         3       0       0       0       0       0       0       0       0       0       0       0       0       0       0       0
      Temps:          0       0       0       0       0       0       0       0       0       0       0       0       0       0       0       0
      Totals:         7       0       0       0       0       0       0       0       0       0       0       0       0       0       0       0
Total ram usage:        7 bytes
 Hardware stack levels used:    1
 This function calls:
		Nothing
 This function is called by:
		i2_fround
 This function uses a non-reentrant model


 *************** function i2__tdiv_to_l_ *****************
 Defined at:
		line 60 in file "C:\Program Files (x86)\Microchip\xc8\v2.05\pic\sources\c90\common\ftdivl.c"
 Parameters:    Size  Location     Type
  f1              4    0[COMRAM] float 
  f2              4    4[COMRAM] float 
 Auto vars:     Size  Location     Type
  _tdiv_to_l_     4   11[COMRAM] unsigned long 
  _tdiv_to_l_     1   16[COMRAM] unsigned char 
  _tdiv_to_l_     1   15[COMRAM] unsigned char 
 Return value:  Size  Location     Type
                  4    0[COMRAM] unsigned long 
 Registers used:
		wreg, status,2, status,0
 Tracked objects:
		On entry : 
		On exit  : 
		Unchanged: 
 Data sizes:     COMRAM   BANK0   BANK1   BANK2   BANK3   BANK4   BANK5   BANK6   BANK7   BANK8   BANK9  BANK10  BANK11  BANK12  BANK13  BANK14
      Params:         8       0       0       0       0       0       0       0       0       0       0       0       0       0       0       0
      Locals:         6       0       0       0       0       0       0       0       0       0       0       0       0       0       0       0
      Temps:          3       0       0       0       0       0       0       0       0       0       0       0       0       0       0       0
      Totals:        17       0       0       0       0       0       0       0       0       0       0       0       0       0       0       0
Total ram usage:       17 bytes
 Hardware stack levels used:    1
 This function calls:
		Nothing
 This function is called by:
		i2__doprnt
 This function uses a non-reentrant model


 *************** function i2__div_to_l_ *****************
 Defined at:
		line 60 in file "C:\Program Files (x86)\Microchip\xc8\v2.05\pic\sources\c90\common\fldivl.c"
 Parameters:    Size  Location     Type
  f1              4    0[COMRAM] unsigned long 
  f2              4    4[COMRAM] unsigned long 
 Auto vars:     Size  Location     Type
  _div_to_l_      4    8[COMRAM] unsigned long 
  _div_to_l_      1   13[COMRAM] unsigned char 
  _div_to_l_      1   12[COMRAM] unsigned char 
 Return value:  Size  Location     Type
                  4    0[COMRAM] unsigned long 
 Registers used:
		wreg, status,2, status,0
 Tracked objects:
		On entry : 
		On exit  : 
		Unchanged: 
 Data sizes:     COMRAM   BANK0   BANK1   BANK2   BANK3   BANK4   BANK5   BANK6   BANK7   BANK8   BANK9  BANK10  BANK11  BANK12  BANK13  BANK14
      Params:         8       0       0       0       0       0       0       0       0       0       0       0       0       0       0       0
      Locals:         6       0       0       0       0       0       0       0       0       0       0       0       0       0       0       0
      Temps:          0       0       0       0       0       0       0       0       0       0       0       0       0       0       0       0
      Totals:        14       0       0       0       0       0       0       0       0       0       0       0       0       0       0       0
Total ram usage:       14 bytes
 Hardware stack levels used:    1
 This function calls:
		Nothing
 This function is called by:
		i2__doprnt
 This function uses a non-reentrant model


 *************** function i2___wmul *****************
 Defined at:
		line 15 in file "C:\Program Files (x86)\Microchip\xc8\v2.05\pic\sources\c90\common\Umul16.c"
 Parameters:    Size  Location     Type
  multiplier      2    0[COMRAM] unsigned int 
  multiplicand    2    2[COMRAM] unsigned int 
 Auto vars:     Size  Location     Type
  __wmul          2    4[COMRAM] unsigned int 
 Return value:  Size  Location     Type
                  2    0[COMRAM] unsigned int 
 Registers used:
		wreg, status,2, status,0, prodl, prodh
 Tracked objects:
		On entry : 
		On exit  : 
		Unchanged: 
 Data sizes:     COMRAM   BANK0   BANK1   BANK2   BANK3   BANK4   BANK5   BANK6   BANK7   BANK8   BANK9  BANK10  BANK11  BANK12  BANK13  BANK14
      Params:         4       0       0       0       0       0       0       0       0       0       0       0       0       0       0       0
      Locals:         2       0       0       0       0       0       0       0       0       0       0       0       0       0       0       0
      Temps:          0       0       0       0       0       0       0       0       0       0       0       0       0       0       0       0
      Totals:         6       0       0       0       0       0       0       0       0       0       0       0       0       0       0       0
Total ram usage:        6 bytes
 Hardware stack levels used:    1
 This function calls:
		Nothing
 This function is called by:
		i2__doprnt
 This function uses a non-reentrant model


 *************** function i2___llmod *****************
 Defined at:
		line 7 in file "C:\Program Files (x86)\Microchip\xc8\v2.05\pic\sources\c90\common\llmod.c"
 Parameters:    Size  Location     Type
  dividend        4   13[COMRAM] unsigned long 
  divisor         4   17[COMRAM] unsigned long 
 Auto vars:     Size  Location     Type
  __llmod         1   21[COMRAM] unsigned char 
 Return value:  Size  Location     Type
                  4   13[COMRAM] unsigned long 
 Registers used:
		wreg, status,2, status,0
 Tracked objects:
		On entry : 
		On exit  : 
		Unchanged: 
 Data sizes:     COMRAM   BANK0   BANK1   BANK2   BANK3   BANK4   BANK5   BANK6   BANK7   BANK8   BANK9  BANK10  BANK11  BANK12  BANK13  BANK14
      Params:         8       0       0       0       0       0       0       0       0       0       0       0       0       0       0       0
      Locals:         1       0       0       0       0       0       0       0       0       0       0       0       0       0       0       0
      Temps:          0       0       0       0       0       0       0       0       0       0       0       0       0       0       0       0
      Totals:         9       0       0       0       0       0       0       0       0       0       0       0       0       0       0       0
Total ram usage:        9 bytes
 Hardware stack levels used:    1
 This function calls:
		Nothing
 This function is called by:
		_heartbeatTimerHandler
		i2__doprnt
 This function uses a non-reentrant model


 *************** function i2___lldiv *****************
 Defined at:
		line 7 in file "C:\Program Files (x86)\Microchip\xc8\v2.05\pic\sources\c90\common\__lldiv.c"
 Parameters:    Size  Location     Type
  dividend        4    0[COMRAM] unsigned long 
  divisor         4    4[COMRAM] unsigned long 
 Auto vars:     Size  Location     Type
  __lldiv         4    8[COMRAM] unsigned long 
  __lldiv         1   12[COMRAM] unsigned char 
 Return value:  Size  Location     Type
                  4    0[COMRAM] unsigned long 
 Registers used:
		wreg, status,2, status,0
 Tracked objects:
		On entry : 
		On exit  : 
		Unchanged: 
 Data sizes:     COMRAM   BANK0   BANK1   BANK2   BANK3   BANK4   BANK5   BANK6   BANK7   BANK8   BANK9  BANK10  BANK11  BANK12  BANK13  BANK14
      Params:         8       0       0       0       0       0       0       0       0       0       0       0       0       0       0       0
      Locals:         5       0       0       0       0       0       0       0       0       0       0       0       0       0       0       0
      Temps:          0       0       0       0       0       0       0       0       0       0       0       0       0       0       0       0
      Totals:        13       0       0       0       0       0       0       0       0       0       0       0       0       0       0       0
Total ram usage:       13 bytes
 Hardware stack levels used:    1
 This function calls:
		Nothing
 This function is called by:
		i2__doprnt
 This function uses a non-reentrant model


 *************** function i2___fltol *****************
 Defined at:
		line 43 in file "C:\Program Files (x86)\Microchip\xc8\v2.05\pic\sources\c90\common\fltol.c"
 Parameters:    Size  Location     Type
  f1              4   77[COMRAM] unsigned long 
 Auto vars:     Size  Location     Type
  __fltol         1   86[COMRAM] unsigned char 
  __fltol         1   85[COMRAM] unsigned char 
 Return value:  Size  Location     Type
                  4   77[COMRAM] long 
 Registers used:
		wreg, status,2, status,0
 Tracked objects:
		On entry : 
		On exit  : 
		Unchanged: 
 Data sizes:     COMRAM   BANK0   BANK1   BANK2   BANK3   BANK4   BANK5   BANK6   BANK7   BANK8   BANK9  BANK10  BANK11  BANK12  BANK13  BANK14
      Params:         4       0       0       0       0       0       0       0       0       0       0       0       0       0       0       0
      Locals:         2       0       0       0       0       0       0       0       0       0       0       0       0       0       0       0
      Temps:          4       0       0       0       0       0       0       0       0       0       0       0       0       0       0       0
      Totals:        10       0       0       0       0       0       0       0       0       0       0       0       0       0       0       0
Total ram usage:       10 bytes
 Hardware stack levels used:    1
 This function calls:
		Nothing
 This function is called by:
		i2__doprnt
 This function uses a non-reentrant model


 *************** function i2___fleq *****************
 Defined at:
		line 4 in file "C:\Program Files (x86)\Microchip\xc8\v2.05\pic\sources\c90\common\fleq.c"
 Parameters:    Size  Location     Type
  ff1             4    0[COMRAM] long 
  ff2             4    4[COMRAM] long 
 Auto vars:     Size  Location     Type
		None
 Return value:  Size  Location     Type
		None               void
 Registers used:
		wreg, status,2, status,0
 Tracked objects:
		On entry : 
		On exit  : 
		Unchanged: 
 Data sizes:     COMRAM   BANK0   BANK1   BANK2   BANK3   BANK4   BANK5   BANK6   BANK7   BANK8   BANK9  BANK10  BANK11  BANK12  BANK13  BANK14
      Params:         8       0       0       0       0       0       0       0       0       0       0       0       0       0       0       0
      Locals:         0       0       0       0       0       0       0       0       0       0       0       0       0       0       0       0
      Temps:          4       0       0       0       0       0       0       0       0       0       0       0       0       0       0       0
      Totals:        12       0       0       0       0       0       0       0       0       0       0       0       0       0       0       0
Total ram usage:       12 bytes
 Hardware stack levels used:    1
 This function calls:
		Nothing
 This function is called by:
		i2__doprnt
 This function uses a non-reentrant model


 *************** function _ADCC_ThresholdISR *****************
 Defined at:
		line 298 in file "mcc_generated_files/adcc.c"
 Parameters:    Size  Location     Type
		None
 Auto vars:     Size  Location     Type
		None
 Return value:  Size  Location     Type
                  1    wreg      void 
 Registers used:
		wreg, fsr2l, fsr2h, status,2, status,0, pclath, tosl, prodl, prodh, cstack
 Tracked objects:
		On entry : 
		On exit  : 
		Unchanged: 
 Data sizes:     COMRAM   BANK0   BANK1   BANK2   BANK3   BANK4   BANK5   BANK6   BANK7   BANK8   BANK9  BANK10  BANK11  BANK12  BANK13  BANK14
      Params:         0       0       0       0       0       0       0       0       0       0       0       0       0       0       0       0
      Locals:         0       0       0       0       0       0       0       0       0       0       0       0       0       0       0       0
      Temps:          0       0       0       0       0       0       0       0       0       0       0       0       0       0       0       0
      Totals:         0       0       0       0       0       0       0       0       0       0       0       0       0       0       0       0
Total ram usage:        0 bytes
 Hardware stack levels used:    1
 Hardware stack levels required when called:    3
 This function calls:
		Absolute function
		_ADCC_DefaultInterruptHandler
		_ADC_PostProcessingHandler
 This function is called by:
		_INTERRUPT_InterruptManagerHigh
 This function uses a non-reentrant model


 *************** function _ADCC_DefaultInterruptHandler *****************
 Defined at:
		line 310 in file "mcc_generated_files/adcc.c"
 Parameters:    Size  Location     Type
		None
 Auto vars:     Size  Location     Type
		None
 Return value:  Size  Location     Type
                  1    wreg      void 
 Registers used:
		None
 Tracked objects:
		On entry : 
		On exit  : 
		Unchanged: 
 Data sizes:     COMRAM   BANK0   BANK1   BANK2   BANK3   BANK4   BANK5   BANK6   BANK7   BANK8   BANK9  BANK10  BANK11  BANK12  BANK13  BANK14
      Params:         0       0       0       0       0       0       0       0       0       0       0       0       0       0       0       0
      Locals:         0       0       0       0       0       0       0       0       0       0       0       0       0       0       0       0
      Temps:          0       0       0       0       0       0       0       0       0       0       0       0       0       0       0       0
      Totals:         0       0       0       0       0       0       0       0       0       0       0       0       0       0       0       0
Total ram usage:        0 bytes
 Hardware stack levels used:    1
 This function calls:
		Nothing
 This function is called by:
		_ADCC_Initialize
		_ADCC_ThresholdISR
 This function uses a non-reentrant model


 *************** function _ADC_PostProcessingHandler *****************
 Defined at:
		line 13 in file "adc_postprocessing.c"
 Parameters:    Size  Location     Type
		None
 Auto vars:     Size  Location     Type
  i               1   26[BANK0 ] unsigned char 
  i               1   25[BANK0 ] unsigned char 
  current_adc_    1   24[BANK0 ] enum E9492
 Return value:  Size  Location     Type
                  1    wreg      void 
 Registers used:
		wreg, fsr2l, fsr2h, status,2, status,0, prodl, prodh, cstack
 Tracked objects:
		On entry : 
		On exit  : 
		Unchanged: 
 Data sizes:     COMRAM   BANK0   BANK1   BANK2   BANK3   BANK4   BANK5   BANK6   BANK7   BANK8   BANK9  BANK10  BANK11  BANK12  BANK13  BANK14
      Params:         0       0       0       0       0       0       0       0       0       0       0       0       0       0       0       0
      Locals:         0      23       0       0       0       0       0       0       0       0       0       0       0       0       0       0
      Temps:          0       0       0       0       0       0       0       0       0       0       0       0       0       0       0       0
      Totals:         0      23       0       0       0       0       0       0       0       0       0       0       0       0       0       0
Total ram usage:       23 bytes
 Hardware stack levels used:    1
 Hardware stack levels required when called:    2
 This function calls:
		_ADCC_GetConversionResult
		_ADCC_GetCurrentCountofConversions
		_ADCC_GetFilterValue
		_ADCC_HasAccumulatorOverflowed
		_ADCC_StopConversion
		_TMR2_StartTimer
		_fabs
		i2___fladd
		i2___fldiv
		i2___flge
		i2___flmul
		i2___flsub
		i2___xxtofl
 This function is called by:
		_main
		_ADCC_ThresholdISR
 This function uses a non-reentrant model


 *************** function i2___xxtofl *****************
 Defined at:
		line 10 in file "C:\Program Files (x86)\Microchip\xc8\v2.05\pic\sources\c90\common\xxtofl.c"
 Parameters:    Size  Location     Type
  sign            1    wreg     unsigned char 
  val             4    4[COMRAM] long 
 Auto vars:     Size  Location     Type
  sign            1   12[COMRAM] unsigned char 
  __xxtofl        4   14[COMRAM] unsigned long 
  __xxtofl        1   13[COMRAM] unsigned char 
 Return value:  Size  Location     Type
                  4    4[COMRAM] unsigned char 
 Registers used:
		wreg, status,2, status,0
 Tracked objects:
		On entry : 
		On exit  : 
		Unchanged: 
 Data sizes:     COMRAM   BANK0   BANK1   BANK2   BANK3   BANK4   BANK5   BANK6   BANK7   BANK8   BANK9  BANK10  BANK11  BANK12  BANK13  BANK14
      Params:         4       0       0       0       0       0       0       0       0       0       0       0       0       0       0       0
      Locals:         6       0       0       0       0       0       0       0       0       0       0       0       0       0       0       0
      Temps:          4       0       0       0       0       0       0       0       0       0       0       0       0       0       0       0
      Totals:        14       0       0       0       0       0       0       0       0       0       0       0       0       0       0       0
Total ram usage:       14 bytes
 Hardware stack levels used:    1
 This function calls:
		Nothing
 This function is called by:
		_ADC_PostProcessingHandler
		i2__doprnt
 This function uses a non-reentrant model


 *************** function i2___flsub *****************
 Defined at:
		line 245 in file "C:\Program Files (x86)\Microchip\xc8\v2.05\pic\sources\c90\common\sprcadd.c"
 Parameters:    Size  Location     Type
  b               4    4[BANK0 ] unsigned char 
  a               4    8[BANK0 ] unsigned char 
 Auto vars:     Size  Location     Type
		None
 Return value:  Size  Location     Type
                  4    4[BANK0 ] unsigned char 
 Registers used:
		wreg, status,2, status,0, cstack
 Tracked objects:
		On entry : 
		On exit  : 
		Unchanged: 
 Data sizes:     COMRAM   BANK0   BANK1   BANK2   BANK3   BANK4   BANK5   BANK6   BANK7   BANK8   BANK9  BANK10  BANK11  BANK12  BANK13  BANK14
      Params:         0       8       0       0       0       0       0       0       0       0       0       0       0       0       0       0
      Locals:         0       0       0       0       0       0       0       0       0       0       0       0       0       0       0       0
      Temps:          0       0       0       0       0       0       0       0       0       0       0       0       0       0       0       0
      Totals:         0       8       0       0       0       0       0       0       0       0       0       0       0       0       0       0
Total ram usage:        8 bytes
 Hardware stack levels used:    1
 Hardware stack levels required when called:    1
 This function calls:
		i2___fladd
 This function is called by:
		_ADC_PostProcessingHandler
		i2__doprnt
 This function uses a non-reentrant model


 *************** function i2___fladd *****************
 Defined at:
		line 10 in file "C:\Program Files (x86)\Microchip\xc8\v2.05\pic\sources\c90\common\sprcadd.c"
 Parameters:    Size  Location     Type
  b               4   81[COMRAM] unsigned char 
  a               4   85[COMRAM] unsigned char 
 Auto vars:     Size  Location     Type
  __fladd         1    3[BANK0 ] unsigned char 
  __fladd         1    2[BANK0 ] unsigned char 
  __fladd         1    1[BANK0 ] unsigned char 
  __fladd         1    0[BANK0 ] unsigned char 
 Return value:  Size  Location     Type
                  4   81[COMRAM] unsigned char 
 Registers used:
		wreg, status,2, status,0
 Tracked objects:
		On entry : 
		On exit  : 
		Unchanged: 
 Data sizes:     COMRAM   BANK0   BANK1   BANK2   BANK3   BANK4   BANK5   BANK6   BANK7   BANK8   BANK9  BANK10  BANK11  BANK12  BANK13  BANK14
      Params:         8       0       0       0       0       0       0       0       0       0       0       0       0       0       0       0
      Locals:         0       4       0       0       0       0       0       0       0       0       0       0       0       0       0       0
      Temps:          4       0       0       0       0       0       0       0       0       0       0       0       0       0       0       0
      Totals:        12       4       0       0       0       0       0       0       0       0       0       0       0       0       0       0
Total ram usage:       16 bytes
 Hardware stack levels used:    1
 This function calls:
		Nothing
 This function is called by:
		_ADC_PostProcessingHandler
		i2__doprnt
		i2___flsub
 This function uses a non-reentrant model


 *************** function i2___flmul *****************
 Defined at:
		line 8 in file "C:\Program Files (x86)\Microchip\xc8\v2.05\pic\sources\c90\common\sprcmul.c"
 Parameters:    Size  Location     Type
  b               4   43[COMRAM] unsigned char 
  a               4   47[COMRAM] unsigned char 
 Auto vars:     Size  Location     Type
  __flmul         4   62[COMRAM] struct .
  __flmul         4   57[COMRAM] unsigned long 
  __flmul         2   66[COMRAM] struct .
  __flmul         1   61[COMRAM] unsigned char 
  __flmul         1   56[COMRAM] unsigned char 
  __flmul         1   55[COMRAM] unsigned char 
 Return value:  Size  Location     Type
                  4   43[COMRAM] unsigned char 
 Registers used:
		wreg, status,2, status,0, prodl, prodh
 Tracked objects:
		On entry : 
		On exit  : 
		Unchanged: 
 Data sizes:     COMRAM   BANK0   BANK1   BANK2   BANK3   BANK4   BANK5   BANK6   BANK7   BANK8   BANK9  BANK10  BANK11  BANK12  BANK13  BANK14
      Params:         8       0       0       0       0       0       0       0       0       0       0       0       0       0       0       0
      Locals:        13       0       0       0       0       0       0       0       0       0       0       0       0       0       0       0
      Temps:          4       0       0       0       0       0       0       0       0       0       0       0       0       0       0       0
      Totals:        25       0       0       0       0       0       0       0       0       0       0       0       0       0       0       0
Total ram usage:       25 bytes
 Hardware stack levels used:    1
 This function calls:
		Nothing
 This function is called by:
		_ADC_PostProcessingHandler
		i2_fround
		i2_scale
		i2__doprnt
 This function uses a non-reentrant model


 *************** function i2___flge *****************
 Defined at:
		line 4 in file "C:\Program Files (x86)\Microchip\xc8\v2.05\pic\sources\c90\common\flge.c"
 Parameters:    Size  Location     Type
  ff1             4    0[COMRAM] unsigned char 
  ff2             4    4[COMRAM] unsigned char 
 Auto vars:     Size  Location     Type
		None
 Return value:  Size  Location     Type
		None               void
 Registers used:
		wreg, status,2, status,0
 Tracked objects:
		On entry : 
		On exit  : 
		Unchanged: 
 Data sizes:     COMRAM   BANK0   BANK1   BANK2   BANK3   BANK4   BANK5   BANK6   BANK7   BANK8   BANK9  BANK10  BANK11  BANK12  BANK13  BANK14
      Params:         8       0       0       0       0       0       0       0       0       0       0       0       0       0       0       0
      Locals:         0       0       0       0       0       0       0       0       0       0       0       0       0       0       0       0
      Temps:          4       0       0       0       0       0       0       0       0       0       0       0       0       0       0       0
      Totals:        12       0       0       0       0       0       0       0       0       0       0       0       0       0       0       0
Total ram usage:       12 bytes
 Hardware stack levels used:    1
 This function calls:
		Nothing
 This function is called by:
		_ADC_PostProcessingHandler
		i2__doprnt
 This function uses a non-reentrant model


 *************** function i2___fldiv *****************
 Defined at:
		line 11 in file "C:\Program Files (x86)\Microchip\xc8\v2.05\pic\sources\c90\common\sprcdiv.c"
 Parameters:    Size  Location     Type
  b               4   18[COMRAM] unsigned char 
  a               4   22[COMRAM] unsigned char 
 Auto vars:     Size  Location     Type
  __fldiv         4   37[COMRAM] unsigned long 
  __fldiv         4   30[COMRAM] unsigned long 
  __fldiv         2   35[COMRAM] int 
  __fldiv         1   42[COMRAM] unsigned char 
  __fldiv         1   41[COMRAM] unsigned char 
  __fldiv         1   34[COMRAM] unsigned char 
 Return value:  Size  Location     Type
                  4   18[COMRAM] unsigned char 
 Registers used:
		wreg, status,2, status,0
 Tracked objects:
		On entry : 
		On exit  : 
		Unchanged: 
 Data sizes:     COMRAM   BANK0   BANK1   BANK2   BANK3   BANK4   BANK5   BANK6   BANK7   BANK8   BANK9  BANK10  BANK11  BANK12  BANK13  BANK14
      Params:         8       0       0       0       0       0       0       0       0       0       0       0       0       0       0       0
      Locals:        13       0       0       0       0       0       0       0       0       0       0       0       0       0       0       0
      Temps:          4       0       0       0       0       0       0       0       0       0       0       0       0       0       0       0
      Totals:        25       0       0       0       0       0       0       0       0       0       0       0       0       0       0       0
Total ram usage:       25 bytes
 Hardware stack levels used:    1
 This function calls:
		Nothing
 This function is called by:
		_ADC_PostProcessingHandler
 This function uses a non-reentrant model


 *************** function _fabs *****************
 Defined at:
		line 4 in file "C:\Program Files (x86)\Microchip\xc8\v2.05\pic\sources\c90\common\fabs.c"
 Parameters:    Size  Location     Type
  d               4    4[COMRAM] unsigned char 
 Auto vars:     Size  Location     Type
		None
 Return value:  Size  Location     Type
                  4    4[COMRAM] unsigned char 
 Registers used:
		wreg, status,2, status,0, cstack
 Tracked objects:
		On entry : 
		On exit  : 
		Unchanged: 
 Data sizes:     COMRAM   BANK0   BANK1   BANK2   BANK3   BANK4   BANK5   BANK6   BANK7   BANK8   BANK9  BANK10  BANK11  BANK12  BANK13  BANK14
      Params:         4       0       0       0       0       0       0       0       0       0       0       0       0       0       0       0
      Locals:         0       0       0       0       0       0       0       0       0       0       0       0       0       0       0       0
      Temps:          0       0       0       0       0       0       0       0       0       0       0       0       0       0       0       0
      Totals:         4       0       0       0       0       0       0       0       0       0       0       0       0       0       0       0
Total ram usage:        4 bytes
 Hardware stack levels used:    1
 Hardware stack levels required when called:    1
 This function calls:
		i2___flneg
 This function is called by:
		_ADC_PostProcessingHandler
 This function uses a non-reentrant model


 *************** function i2___flneg *****************
 Defined at:
		line 15 in file "C:\Program Files (x86)\Microchip\xc8\v2.05\pic\sources\c90\common\flneg.c"
 Parameters:    Size  Location     Type
  f1              4    0[COMRAM] unsigned char 
 Auto vars:     Size  Location     Type
		None
 Return value:  Size  Location     Type
                  4    0[COMRAM] unsigned char 
 Registers used:
		wreg, status,2, status,0
 Tracked objects:
		On entry : 
		On exit  : 
		Unchanged: 
 Data sizes:     COMRAM   BANK0   BANK1   BANK2   BANK3   BANK4   BANK5   BANK6   BANK7   BANK8   BANK9  BANK10  BANK11  BANK12  BANK13  BANK14
      Params:         4       0       0       0       0       0       0       0       0       0       0       0       0       0       0       0
      Locals:         0       0       0       0       0       0       0       0       0       0       0       0       0       0       0       0
      Temps:          0       0       0       0       0       0       0       0       0       0       0       0       0       0       0       0
      Totals:         4       0       0       0       0       0       0       0       0       0       0       0       0       0       0       0
Total ram usage:        4 bytes
 Hardware stack levels used:    1
 This function calls:
		Nothing
 This function is called by:
		_fabs
		i2__doprnt
 This function uses a non-reentrant model


 *************** function _TMR2_StartTimer *****************
 Defined at:
		line 114 in file "mcc_generated_files/tmr2.c"
 Parameters:    Size  Location     Type
		None
 Auto vars:     Size  Location     Type
		None
 Return value:  Size  Location     Type
                  1    wreg      void 
 Registers used:
		cstack
 Tracked objects:
		On entry : 
		On exit  : 
		Unchanged: 
 Data sizes:     COMRAM   BANK0   BANK1   BANK2   BANK3   BANK4   BANK5   BANK6   BANK7   BANK8   BANK9  BANK10  BANK11  BANK12  BANK13  BANK14
      Params:         0       0       0       0       0       0       0       0       0       0       0       0       0       0       0       0
      Locals:         0       0       0       0       0       0       0       0       0       0       0       0       0       0       0       0
      Temps:          0       0       0       0       0       0       0       0       0       0       0       0       0       0       0       0
      Totals:         0       0       0       0       0       0       0       0       0       0       0       0       0       0       0       0
Total ram usage:        0 bytes
 Hardware stack levels used:    1
 Hardware stack levels required when called:    1
 This function calls:
		_TMR2_Start
 This function is called by:
		_ADC_PostProcessingHandler
 This function uses a non-reentrant model


 *************** function _TMR2_Start *****************
 Defined at:
		line 108 in file "mcc_generated_files/tmr2.c"
 Parameters:    Size  Location     Type
		None
 Auto vars:     Size  Location     Type
		None
 Return value:  Size  Location     Type
                  1    wreg      void 
 Registers used:
		None
 Tracked objects:
		On entry : 
		On exit  : 
		Unchanged: 
 Data sizes:     COMRAM   BANK0   BANK1   BANK2   BANK3   BANK4   BANK5   BANK6   BANK7   BANK8   BANK9  BANK10  BANK11  BANK12  BANK13  BANK14
      Params:         0       0       0       0       0       0       0       0       0       0       0       0       0       0       0       0
      Locals:         0       0       0       0       0       0       0       0       0       0       0       0       0       0       0       0
      Temps:          0       0       0       0       0       0       0       0       0       0       0       0       0       0       0       0
      Totals:         0       0       0       0       0       0       0       0       0       0       0       0       0       0       0       0
Total ram usage:        0 bytes
 Hardware stack levels used:    1
 This function calls:
		Nothing
 This function is called by:
		_TMR2_StartTimer
 This function uses a non-reentrant model


 *************** function _ADCC_StopConversion *****************
 Defined at:
		line 162 in file "mcc_generated_files/adcc.c"
 Parameters:    Size  Location     Type
		None
 Auto vars:     Size  Location     Type
		None
 Return value:  Size  Location     Type
                  1    wreg      void 
 Registers used:
		None
 Tracked objects:
		On entry : 
		On exit  : 
		Unchanged: 
 Data sizes:     COMRAM   BANK0   BANK1   BANK2   BANK3   BANK4   BANK5   BANK6   BANK7   BANK8   BANK9  BANK10  BANK11  BANK12  BANK13  BANK14
      Params:         0       0       0       0       0       0       0       0       0       0       0       0       0       0       0       0
      Locals:         0       0       0       0       0       0       0       0       0       0       0       0       0       0       0       0
      Temps:          0       0       0       0       0       0       0       0       0       0       0       0       0       0       0       0
      Totals:         0       0       0       0       0       0       0       0       0       0       0       0       0       0       0       0
Total ram usage:        0 bytes
 Hardware stack levels used:    1
 This function calls:
		Nothing
 This function is called by:
		_ADC_PostProcessingHandler
 This function uses a non-reentrant model


 *************** function _ADCC_HasAccumulatorOverflowed *****************
 Defined at:
		line 216 in file "mcc_generated_files/adcc.c"
 Parameters:    Size  Location     Type
		None
 Auto vars:     Size  Location     Type
		None
 Return value:  Size  Location     Type
                  1    wreg      unsigned char 
 Registers used:
		wreg
 Tracked objects:
		On entry : 
		On exit  : 
		Unchanged: 
 Data sizes:     COMRAM   BANK0   BANK1   BANK2   BANK3   BANK4   BANK5   BANK6   BANK7   BANK8   BANK9  BANK10  BANK11  BANK12  BANK13  BANK14
      Params:         0       0       0       0       0       0       0       0       0       0       0       0       0       0       0       0
      Locals:         0       0       0       0       0       0       0       0       0       0       0       0       0       0       0       0
      Temps:          0       0       0       0       0       0       0       0       0       0       0       0       0       0       0       0
      Totals:         0       0       0       0       0       0       0       0       0       0       0       0       0       0       0       0
Total ram usage:        0 bytes
 Hardware stack levels used:    1
 This function calls:
		Nothing
 This function is called by:
		_ADC_PostProcessingHandler
 This function uses a non-reentrant model


 *************** function _ADCC_GetFilterValue *****************
 Defined at:
		line 222 in file "mcc_generated_files/adcc.c"
 Parameters:    Size  Location     Type
		None
 Auto vars:     Size  Location     Type
		None
 Return value:  Size  Location     Type
                  2    0[COMRAM] unsigned int 
 Registers used:
		wreg, status,2, status,0
 Tracked objects:
		On entry : 
		On exit  : 
		Unchanged: 
 Data sizes:     COMRAM   BANK0   BANK1   BANK2   BANK3   BANK4   BANK5   BANK6   BANK7   BANK8   BANK9  BANK10  BANK11  BANK12  BANK13  BANK14
      Params:         2       0       0       0       0       0       0       0       0       0       0       0       0       0       0       0
      Locals:         0       0       0       0       0       0       0       0       0       0       0       0       0       0       0       0
      Temps:          2       0       0       0       0       0       0       0       0       0       0       0       0       0       0       0
      Totals:         4       0       0       0       0       0       0       0       0       0       0       0       0       0       0       0
Total ram usage:        4 bytes
 Hardware stack levels used:    1
 This function calls:
		Nothing
 This function is called by:
		_ADC_PostProcessingHandler
 This function uses a non-reentrant model


 *************** function _ADCC_GetCurrentCountofConversions *****************
 Defined at:
		line 198 in file "mcc_generated_files/adcc.c"
 Parameters:    Size  Location     Type
		None
 Auto vars:     Size  Location     Type
		None
 Return value:  Size  Location     Type
                  1    wreg      unsigned char 
 Registers used:
		wreg, status,2
 Tracked objects:
		On entry : 
		On exit  : 
		Unchanged: 
 Data sizes:     COMRAM   BANK0   BANK1   BANK2   BANK3   BANK4   BANK5   BANK6   BANK7   BANK8   BANK9  BANK10  BANK11  BANK12  BANK13  BANK14
      Params:         0       0       0       0       0       0       0       0       0       0       0       0       0       0       0       0
      Locals:         0       0       0       0       0       0       0       0       0       0       0       0       0       0       0       0
      Temps:          0       0       0       0       0       0       0       0       0       0       0       0       0       0       0       0
      Totals:         0       0       0       0       0       0       0       0       0       0       0       0       0       0       0       0
Total ram usage:        0 bytes
 Hardware stack levels used:    1
 This function calls:
		Nothing
 This function is called by:
		_ADC_PostProcessingHandler
 This function uses a non-reentrant model


 *************** function _ADCC_GetConversionResult *****************
 Defined at:
		line 130 in file "mcc_generated_files/adcc.c"
 Parameters:    Size  Location     Type
		None
 Auto vars:     Size  Location     Type
		None
 Return value:  Size  Location     Type
                  2    0[COMRAM] unsigned int 
 Registers used:
		wreg, status,2, status,0
 Tracked objects:
		On entry : 
		On exit  : 
		Unchanged: 
 Data sizes:     COMRAM   BANK0   BANK1   BANK2   BANK3   BANK4   BANK5   BANK6   BANK7   BANK8   BANK9  BANK10  BANK11  BANK12  BANK13  BANK14
      Params:         2       0       0       0       0       0       0       0       0       0       0       0       0       0       0       0
      Locals:         0       0       0       0       0       0       0       0       0       0       0       0       0       0       0       0
      Temps:          2       0       0       0       0       0       0       0       0       0       0       0       0       0       0       0
      Totals:         4       0       0       0       0       0       0       0       0       0       0       0       0       0       0       0
Total ram usage:        4 bytes
 Hardware stack levels used:    1
 This function calls:
		Nothing
 This function is called by:
		_ADC_PostProcessingHandler
 This function uses a non-reentrant model



MODULE INFORMATION

Module		Function		Class		Link	Load	Size
C:\Program Files (x86)\Microchip\xc8\v2.05\pic\sources\c90\common\isdigit.c
		_isdigit       		CODE           	1BEF0	0000	35

C:\Program Files (x86)\Microchip\xc8\v2.05\pic\sources\c90\common\isdigit.c estimated size: 35

C:\Program Files (x86)\Microchip\xc8\v2.05\pic\sources\c90\common\doprnt.c
		_scale         		CODE           	155D8	0000	1077
		_fround        		CODE           	17874	0000	707
		__doprnt       		CODE           	10000	0000	5925

C:\Program Files (x86)\Microchip\xc8\v2.05\pic\sources\c90\common\doprnt.c estimated size: 7709

C:\Program Files (x86)\Microchip\xc8\v2.05\pic\sources\c90\common\sprcadd.c
		___flsub       		CODE           	1B52E	0000	73
		___fladd       		CODE           	16F4A	0000	783

C:\Program Files (x86)\Microchip\xc8\v2.05\pic\sources\c90\common\sprcadd.c estimated size: 856

C:\Program Files (x86)\Microchip\xc8\v2.05\pic\sources\c90\common\llmod.c
		___llmod       		CODE           	1ADEE	0000	105

C:\Program Files (x86)\Microchip\xc8\v2.05\pic\sources\c90\common\llmod.c estimated size: 105

NXQ_charge_state.c
		_QIIdleChargedTimerHandler		CODE           	1BFB2	0000	33
		_getNXQChargeStateString		CODE           	1B0AC	0000	93
		_QIChargeIOCHandler		CODE           	1C048	0000	29
		_getNXQChargeStateStringCaps		CODE           	1B108	0000	93
		_QIErrorTimerHandler		CODE           	1C132	0000	23
		_QIIdleIOCHandler		CODE           	1C19C	0000	21

NXQ_charge_state.c estimated size: 292

mcc_generated_files/eusart2.c
		_putch         		CODE           	1C174	0000	21
		_EUSART2_Read  		CODE           	1B860	0000	63
		_EUSART2_Write 		CODE           	1B64A	0000	69
		_EUSART2_Receive_ISR		CODE           	1A514	0000	165
		_EUSART2_Transmit_ISR		CODE           	1BB82	0000	51
		_EUSART2_SetRxInterruptHandler		CODE           	1C2B2	0000	15
		_EUSART2_SetTxInterruptHandler		CODE           	1C2A4	0000	15
		_EUSART2_Initialize		CODE           	1AEBC	0000	103

mcc_generated_files/eusart2.c estimated size: 502

mcc_generated_files/fvr.c
		_FVR_Initialize		CODE           	1C312	0000	13

mcc_generated_files/fvr.c estimated size: 13

error_handling.c
		_updateErrorLEDs		CODE           	1B5BE	0000	71
		_getADCError   		CODE           	1C11C	0000	23
		_clearADCErrors		CODE           	1C1E8	0000	17
		_clearUARTErrors		CODE           	1C306	0000	13
		_clearI2CErrors		CODE           	1C010	0000	29
		_getI2CError   		CODE           	1BD4E	0000	41
		_getUARTError  		CODE           	1C370	0000	7

error_handling.c estimated size: 201

mcc_generated_files/tmr2.c
		_TMR2_ISR      		CODE           	1BD9E	0000	41
		_TMR2_Initialize		CODE           	1BB50	0000	51
		_TMR2_Stop     		CODE           	1C398	0000	5
		_TMR2_Start    		CODE           	1C3A8	0000	5
		_TMR2_SetInterruptHandler		CODE           	1C242	0000	15
		_TMR2_StopTimer		CODE           	1C376	0000	7
		_TMR2_DefaultInterruptHandler		CODE           	1C3B6	0000	3
		_TMR2_StartTimer		CODE           	1C382	0000	7

mcc_generated_files/tmr2.c estimated size: 134

mcc_generated_files/interrupt_manager.c
		_INTERRUPT_Initialize		CODE           	1BF72	0000	33
		_INTERRUPT_InterruptManagerLow		CODE           	0018	0000	171
		_INTERRUPT_InterruptManagerHigh		CODE           	0008	0000	211

mcc_generated_files/interrupt_manager.c estimated size: 415

C:\Program Files (x86)\Microchip\xc8\v2.05\pic\sources\c90\common\sprintf.c
		_sprintf       		CODE           	1B4E6	0000	73

C:\Program Files (x86)\Microchip\xc8\v2.05\pic\sources\c90\common\sprintf.c estimated size: 73

heartbeat_timer.c
		_getStringSecondsAsTime		CODE           	15E24	0000	935
		_getYearsFromOnTime		CODE           	1BC14	0000	49
		_getHoursFromOnTime		CODE           	19E04	0000	241
		_heartbeatTimerHandler		CODE           	1A6FA	0000	159
		_getDaysFromOnTime		CODE           	1A8C8	0000	145
		_getSecondsFromOnTime		CODE           	19174	0000	379
		_getMinutesFromOnTime		CODE           	192EE	0000	337

heartbeat_timer.c estimated size: 2245

C:\Program Files (x86)\Microchip\xc8\v2.05\pic\sources\c90\common\awmod.c
		___awmod       		CODE           	1AD0C	0000	115

C:\Program Files (x86)\Microchip\xc8\v2.05\pic\sources\c90\common\awmod.c estimated size: 115

terminal_control.c
		_terminalTextAttributesReset		CODE           	1C1D8	0000	17
		_terminalClearScreen		CODE           	1C208	0000	17
		_terminalTextAttributes		CODE           	161CA	0000	903
		_terminalSetCursorHome		CODE           	1C1F8	0000	17

terminal_control.c estimated size: 954

adc_postprocessing.c
		_ADC_acquisitionTimerHandler		CODE           	1C0B6	0000	27
		_ADC_PostProcessingHandler		CODE           	14C64	0000	2421

adc_postprocessing.c estimated size: 2448

mcc_generated_files/tmr0.c
		_TMR0_SetInterruptHandler		CODE           	1C25E	0000	15
		_TMR0_DefaultInterruptHandler		CODE           	1C3BA	0000	3
		_TMR0_ISR      		CODE           	1BDC6	0000	41
		_TMR0_Initialize		CODE           	1BCD0	0000	43

mcc_generated_files/tmr0.c estimated size: 102

C:\Program Files (x86)\Microchip\xc8\v2.05\pic\sources\c90\common\ftdivl.c
		__tdiv_to_l_   		CODE           	19928	0000	257

C:\Program Files (x86)\Microchip\xc8\v2.05\pic\sources\c90\common\ftdivl.c estimated size: 257

mcc_generated_files/pin_manager.c
		_IOCBF3_DefaultInterruptHandler		CODE           	1C3BC	0000	3
		_PIN_MANAGER_Initialize		CODE           	1A65A	0000	161
		_IOCBF3_ISR    		CODE           	1BCFA	0000	43
		_IOCBF2_SetInterruptHandler		CODE           	1C27A	0000	15
		_IOCBF3_SetInterruptHandler		CODE           	1C26C	0000	15
		_IOCBF2_DefaultInterruptHandler		CODE           	1C3BE	0000	3
		_PIN_MANAGER_IOC		CODE           	1C188	0000	21
		_IOCBF2_ISR    		CODE           	1BD24	0000	43

mcc_generated_files/pin_manager.c estimated size: 304

C:\Program Files (x86)\Microchip\xc8\v2.05\pic\sources\c90\common\lwdiv.c
		___lwdiv       		CODE           	1B216	0000	85

C:\Program Files (x86)\Microchip\xc8\v2.05\pic\sources\c90\common\lwdiv.c estimated size: 85

C:\Program Files (x86)\Microchip\xc8\v2.05\pic\sources\c90\common\fltol.c
		___fltol       		CODE           	1A2F0	0000	189

C:\Program Files (x86)\Microchip\xc8\v2.05\pic\sources\c90\common\fltol.c estimated size: 189

cap_touch_int.c
		_leftCapTouchHandler		CODE           	1C15E	0000	23
		_rightCapTouchHandler		CODE           	1C148	0000	23

cap_touch_int.c estimated size: 46

C:\Program Files (x86)\Microchip\xc8\v2.05\pic\sources\c90\common\Umul16.c
		___wmul        		CODE           	1BD76	0000	41

C:\Program Files (x86)\Microchip\xc8\v2.05\pic\sources\c90\common\Umul16.c estimated size: 41

device_IDs.c
		_getDeviceID   		CODE           	1BF92	0000	33
		_getUserID     		CODE           	1BAB4	0000	53
		_getMinorRevisionID		CODE           	1BE16	0000	39
		_getDeviceIDString		CODE           	1A798	0000	153
		_getMajorRevisionID		CODE           	1B992	0000	61

device_IDs.c estimated size: 339

C:\Program Files (x86)\Microchip\xc8\v2.05\pic\sources\c90\common\fldivl.c
		__div_to_l_    		CODE           	19B26	0000	247

C:\Program Files (x86)\Microchip\xc8\v2.05\pic\sources\c90\common\fldivl.c estimated size: 247

C:\Program Files (x86)\Microchip\xc8\v2.05\pic\sources\c90\common\flge.c
		___flge        		CODE           	19EF4	0000	211

C:\Program Files (x86)\Microchip\xc8\v2.05\pic\sources\c90\common\flge.c estimated size: 211

mcc_generated_files/ccp2.c
		_CCP2_CallBack 		CODE           	1B820	0000	65
		_CCP2_CaptureISR		CODE           	1C0EA	0000	27
		_CCP2_Initialize		CODE           	1BECE	0000	35

mcc_generated_files/ccp2.c estimated size: 127

C:\Program Files (x86)\Microchip\xc8\v2.05\pic\sources\c90\common\printf.c
		_printf        		CODE           	1B91A	0000	61

C:\Program Files (x86)\Microchip\xc8\v2.05\pic\sources\c90\common\printf.c estimated size: 61

mcc_generated_files/ext_int.c
		_INT1_SetInterruptHandler		CODE           	1C296	0000	15
		_EXT_INT_Initialize		CODE           	1BA46	0000	57
		_INT2_SetInterruptHandler		CODE           	1C288	0000	15
		_INT1_DefaultInterruptHandler		CODE           	1C3C2	0000	3
		_INT1_CallBack 		CODE           	1BEAA	0000	37
		_INT2_DefaultInterruptHandler		CODE           	1C3C0	0000	3
		_INT2_CallBack 		CODE           	1BE86	0000	37
		_INT1_ISR      		CODE           	1C354	0000	11
		_INT2_ISR      		CODE           	1C34A	0000	11

mcc_generated_files/ext_int.c estimated size: 189

C:\Program Files (x86)\Microchip\xc8\v2.05\pic\sources\c90\common\awdiv.c
		___awdiv       		CODE           	1AAFC	0000	135

C:\Program Files (x86)\Microchip\xc8\v2.05\pic\sources\c90\common\awdiv.c estimated size: 135

LM73_I2C.c
		_LM73TempSensorInitialize		CODE           	18D10	0000	569
		_LM73Convert   		CODE           	17DE4	0000	669
		_LM73AcquisitionHandler		CODE           	18F48	0000	557

LM73_I2C.c estimated size: 1795

freq_meas.c
		_freqMeasStartCaptures		CODE           	1C336	0000	11
		_freqMeasConvert		CODE           	1A162	0000	203

freq_meas.c estimated size: 214

mcc_generated_files/tmr5.c
		_TMR5_Initialize		CODE           	1B956	0000	61
		_TMR5_StopTimer		CODE           	1C388	0000	5
		_TMR5_WriteTimer		CODE           	1BF12	0000	33

mcc_generated_files/tmr5.c estimated size: 99

shared
		i2_printf      		CODE           	1B9CE	0000	61
		i1_TMR3_Reload 		CODE           	1C2CE	0000	15
		i2_TMR3_Reload 		CODE           	1C2F8	0000	15
		_OledFont      		MEDIUMCONST    	E0C7	0000	769
		i1_TMR3_StopTimer		CODE           	1C394	0000	5
		i2_putch       		CODE           	1C35E	0000	11
		i2___fleq      		CODE           	1AA72	0000	139
		__powers_      		MEDIUMCONST    	E03F	0000	53
		i1_TMR3_WriteTimer		CODE           	1BFD2	0000	33
		_dpowers       		MEDIUMCONST    	E3C7	0000	41
		i2_TMR3_WriteTimer		CODE           	1C080	0000	29
		i2___lwdiv     		CODE           	1B2BC	0000	83
		i2_isdigit     		CODE           	1BFF2	0000	31
		i2___flneg     		CODE           	1BCA2	0000	47
		i2___awdiv     		CODE           	1AC06	0000	133
		i1___fladd     		CODE           	17258	0000	783
		i2_TMR1_Reload 		CODE           	1C2EA	0000	15
		i2___fladd     		CODE           	17566	0000	783
		i2__tdiv_to_l_ 		CODE           	19A28	0000	255
		i2___wmul      		CODE           	1BE3C	0000	39
		i2_TMR1_StopTimer		CODE           	1C39C	0000	5
		i2__doprnt     		CODE           	11724	0000	5913
		i1___fldiv     		CODE           	1830A	0000	651
		i2___fldiv     		CODE           	18594	0000	649
		i2__div_to_l_  		CODE           	19D10	0000	245
		__npowers_     		MEDIUMCONST    	E073	0000	53
		i2___lwmod     		CODE           	1B7DE	0000	67
		i2___fltol     		CODE           	1A3AC	0000	187
		i2_scale       		CODE           	15A0C	0000	1049
		i2___lldiv     		CODE           	1AC8A	0000	131
		__initialization		CODE           	1A958	0000	133
		i2___flge      		CODE           	19FC6	0000	209
		i2___awmod     		CODE           	1AD7E	0000	113
		i2_TMR1_WriteTimer		CODE           	1C064	0000	29
		i2_EUSART2_Write		CODE           	1B79C	0000	67
		i1___flmul     		CODE           	168A4	0000	853
		i2___flmul     		CODE           	16BF8	0000	851
		_hexpowers     		MEDIUMCONST    	E0A7	0000	33
		i2___llmod     		CODE           	1AF88	0000	103
		i1___xxtofl    		CODE           	19582	0000	325
		i2___xxtofl    		CODE           	196C6	0000	321
		i2___flsub     		CODE           	1B576	0000	73
		_temp_adc_offset		MEDIUMCONST    	0000	0000	0
		i2_fround      		CODE           	17B36	0000	687

shared estimated size: 16087

C:\Program Files (x86)\Microchip\xc8\v2.05\pic\sources\c90\common\sprcmul.c
		___flmul       		CODE           	16550	0000	853

C:\Program Files (x86)\Microchip\xc8\v2.05\pic\sources\c90\common\sprcmul.c estimated size: 853

C:\Program Files (x86)\Microchip\xc8\v2.05\pic\sources\c90\common\strncpy.c
		_strncpy       		CODE           	1AE56	0000	103

C:\Program Files (x86)\Microchip\xc8\v2.05\pic\sources\c90\common\strncpy.c estimated size: 103

mcc_generated_files/mcc.c
		_PMD_Initialize		CODE           	1C02C	0000	29
		_OSCILLATOR_Initialize		CODE           	1C104	0000	25
		_SYSTEM_Initialize		CODE           	1B89E	0000	63

mcc_generated_files/mcc.c estimated size: 117

ring_buffer_interface.c
		_terminal_ringBufferPull		CODE           	19C1C	0000	245

ring_buffer_interface.c estimated size: 245

mcc_generated_files/tmr3.c
		_TMR3_ISR      		CODE           	1BAE8	0000	53
		_TMR3_Initialize		CODE           	1B35E	0000	81
		_TMR3_SetInterruptHandler		CODE           	1C234	0000	15
		_TMR3_StopTimer		CODE           	1C38C	0000	5
		_TMR3_Reload   		CODE           	1C218	0000	15
		_TMR3_DefaultInterruptHandler		CODE           	1C3B4	0000	3
		_TMR3_WriteTimer		CODE           	1BF32	0000	33
		_TMR3_StartTimer		CODE           	1C3A0	0000	5

mcc_generated_files/tmr3.c estimated size: 210

C:\Program Files (x86)\Microchip\xc8\v2.05\pic\sources\c90\common\sprcdiv.c
		___fldiv       		CODE           	18080	0000	651

C:\Program Files (x86)\Microchip\xc8\v2.05\pic\sources\c90\common\sprcdiv.c estimated size: 651

C:\Program Files (x86)\Microchip\xc8\v2.05\pic\sources\c90\common\strcat.c
		_strcat        		CODE           	1B04E	0000	95

C:\Program Files (x86)\Microchip\xc8\v2.05\pic\sources\c90\common\strcat.c estimated size: 95

C:\Program Files (x86)\Microchip\xc8\v2.05\pic\sources\c90\common\flneg.c
		___flneg       		CODE           	1BBE4	0000	49

C:\Program Files (x86)\Microchip\xc8\v2.05\pic\sources\c90\common\flneg.c estimated size: 49

C:\Program Files (x86)\Microchip\xc8\v2.05\pic\sources\c90\common\fabs.c
		_fabs          		CODE           	1BA0A	0000	61

C:\Program Files (x86)\Microchip\xc8\v2.05\pic\sources\c90\common\fabs.c estimated size: 61

cause_of_reset.c
		_getCauseOfResetStringSmall		CODE           	1BC44	0000	49
		_getCauseOfResetString		CODE           	1BBB4	0000	49
		_getCauseOfReset		CODE           	1B164	0000	91

cause_of_reset.c estimated size: 189

mcc_generated_files/tmr1.c
		_TMR1_Initialize		CODE           	1B3AE	0000	81
		_TMR1_SetInterruptHandler		CODE           	1C250	0000	15
		_TMR1_StopTimer		CODE           	1C390	0000	5
		_TMR1_Reload   		CODE           	1C226	0000	15
		_TMR1_DefaultInterruptHandler		CODE           	1C3B8	0000	3
		_TMR1_WriteTimer		CODE           	1BF52	0000	33
		_TMR1_StartTimer		CODE           	1C3A4	0000	5
		_TMR1_ISR      		CODE           	1BB1C	0000	53

mcc_generated_files/tmr1.c estimated size: 210

C:\Program Files (x86)\Microchip\xc8\v2.05\pic\sources\c90\common\memmove.c
		_memmove       		CODE           	1A466	0000	175

C:\Program Files (x86)\Microchip\xc8\v2.05\pic\sources\c90\common\memmove.c estimated size: 175

mcc_generated_files/i2c2.c
		_I2C2_BusCollisionISR		CODE           	1C31E	0000	13
		_I2C2_MasterRead		CODE           	1B44E	0000	81
		_I2C2_FunctionComplete		CODE           	1C0D0	0000	27
		_I2C2_MasterWriteTRBBuild		CODE           	1B604	0000	71
		_I2C2_ISR      		CODE           	18A9A	0000	631
		_I2C2_MasterWrite		CODE           	1B3FE	0000	81
		_I2C2_Initialize		CODE           	1BA7E	0000	55
		_I2C2_Stop     		CODE           	1B716	0000	69
		_I2C2_MasterReadTRBBuild		CODE           	1B26A	0000	83
		_I2C2_WaitForLastPacketToComplete		CODE           	1C340	0000	11
		_I2C2_MasterTRBInsert		CODE           	1A5B8	0000	163

mcc_generated_files/i2c2.c estimated size: 1285

C:\Program Files (x86)\Microchip\xc8\v2.05\pic\sources\c90\common\xxtofl.c
		___xxtofl      		CODE           	1943E	0000	325

C:\Program Files (x86)\Microchip\xc8\v2.05\pic\sources\c90\common\xxtofl.c estimated size: 325

oled.c
		_OLED_Clear    		CODE           	1B8DC	0000	63
		_OLED_Command  		CODE           	1AF22	0000	103
		_OLED_WriteString		CODE           	1B1BE	0000	89
		_OLED_UpdateFromRAMBuffer		CODE           	19806	0000	291
		_OLED_Init     		CODE           	1A830	0000	153
		_OLED_updateHandler		CODE           	12E3C	0000	4219
		_OLED_PutChar  		CODE           	1A22C	0000	197
		_OLED_YX       		CODE           	1B6D2	0000	69

oled.c estimated size: 5184

mcc_generated_files/memory.c
		_FLASH_ReadWord		CODE           	1B75A	0000	67
		_FLASH_ReadByte		CODE           	1C09C	0000	27

mcc_generated_files/memory.c estimated size: 94

ring_buffer_LUT.c
		_ringBufferLUT 		CODE           	13EB6	0000	3503

ring_buffer_LUT.c estimated size: 3503

C:\Program Files (x86)\Microchip\xc8\v2.05\pic\sources\c90\common\strlen.c
		_strlen        		CODE           	1BC74	0000	47

C:\Program Files (x86)\Microchip\xc8\v2.05\pic\sources\c90\common\strlen.c estimated size: 47

mcc_generated_files/adcc.c
		_ADCC_StopConversion		CODE           	1C3AC	0000	5
		_ADCC_DefaultInterruptHandler		CODE           	1C3C4	0000	3
		_ADCC_ClearAccumulator		CODE           	1C37C	0000	7
		_ADCC_GetFilterValue		CODE           	1C1B0	0000	21
		_ADCC_GetCurrentCountofConversions		CODE           	1C3B0	0000	5
		_ADCC_SetADTIInterruptHandler		CODE           	1C2C0	0000	15
		_ADCC_GetConversionResult		CODE           	1C1C4	0000	21
		_ADCC_ThresholdISR		CODE           	1BDEE	0000	41
		_ADCC_StartConversion		CODE           	1C2DC	0000	15
		_ADCC_Initialize		CODE           	1AFEE	0000	97
		_ADCC_HasAccumulatorOverflowed		CODE           	1C32A	0000	13
		_ADCC_DischargeSampleCapacitor		CODE           	1C368	0000	9

mcc_generated_files/adcc.c estimated size: 252

C:\Program Files (x86)\Microchip\xc8\v2.05\pic\sources\c90\common\strcmp.c
		_strcmp        		CODE           	1B30E	0000	81

C:\Program Files (x86)\Microchip\xc8\v2.05\pic\sources\c90\common\strcmp.c estimated size: 81

C:\Program Files (x86)\Microchip\xc8\v2.05\pic\sources\c90\common\strcpy.c
		_strcpy        		CODE           	1B49E	0000	73

C:\Program Files (x86)\Microchip\xc8\v2.05\pic\sources\c90\common\strcpy.c estimated size: 73

C:\Program Files (x86)\Microchip\xc8\v2.05\pic\sources\c90\common\__lldiv.c
		___lldiv       		CODE           	1AB82	0000	133

C:\Program Files (x86)\Microchip\xc8\v2.05\pic\sources\c90\common\__lldiv.c estimated size: 133

main.c
		_main          		CODE           	1881C	0000	639

main.c estimated size: 639

C:\Program Files (x86)\Microchip\xc8\v2.05\pic\sources\c90\common\fleq.c
		___fleq        		CODE           	1A9E6	0000	141

C:\Program Files (x86)\Microchip\xc8\v2.05\pic\sources\c90\common\fleq.c estimated size: 141

C:\Program Files (x86)\Microchip\xc8\v2.05\pic\sources\c90\common\lwmod.c
		___lwmod       		CODE           	1B68E	0000	69

C:\Program Files (x86)\Microchip\xc8\v2.05\pic\sources\c90\common\lwmod.c estimated size: 69

